
riscv_mc_helloworld.elf:     file format elf32-littleriscv
riscv_mc_helloworld.elf
architecture: riscv:rv32, flags 0x00000112:
EXEC_P, HAS_SYMS, D_PAGED
start address 0x00000000

Program Header:
    LOAD off    0x00001000 vaddr 0x00000000 paddr 0x00000000 align 2**12
         filesz 0x00002d78 memsz 0x00003a30 flags rwx

Sections:
Idx Name           Size      VMA       LMA       File off  Algn  Flags
  0 .text          00002834  00000000  00000000  00001000  2**4  CONTENTS, ALLOC, LOAD, READONLY, CODE
  1 .gprof         00000000  00002834  00002834  00003d78  2**2  CONTENTS
  2 .ctors         00000000  00002834  00002834  00003d78  2**2  CONTENTS
  3 .dtors         00000000  00002834  00002834  00003d78  2**2  CONTENTS
  4 .rodata        000004ec  00002834  00002834  00003834  2**2  CONTENTS, ALLOC, LOAD, READONLY, DATA
  5 .data          00000058  00002d20  00002d20  00003d20  2**2  CONTENTS, ALLOC, LOAD, DATA
  6 .bss           000002b8  00002d78  00002d78  00003d78  2**2  ALLOC
  7 .heap          00000000  00003030  00003030  00003d78  2**3  CONTENTS
  8 .stack         00000a00  00003030  00003030  00003d78  2**4  ALLOC
  9 .debug_info    00002eba  00000000  00000000  00003d78  2**0  CONTENTS, READONLY, DEBUGGING, OCTETS
 10 .debug_abbrev  000010de  00000000  00000000  00006c32  2**0  CONTENTS, READONLY, DEBUGGING, OCTETS
 11 .debug_aranges 000003a0  00000000  00000000  00007d10  2**3  CONTENTS, READONLY, DEBUGGING, OCTETS
 12 .debug_ranges  000002e0  00000000  00000000  000080b0  2**3  CONTENTS, READONLY, DEBUGGING, OCTETS
 13 .debug_macro   00003735  00000000  00000000  00008390  2**0  CONTENTS, READONLY, DEBUGGING, OCTETS
 14 .debug_line    000052d8  00000000  00000000  0000bac5  2**0  CONTENTS, READONLY, DEBUGGING, OCTETS
 15 .debug_str     0000a3e7  00000000  00000000  00010d9d  2**0  CONTENTS, READONLY, DEBUGGING, OCTETS
 16 .comment       00000033  00000000  00000000  0001b184  2**0  CONTENTS, READONLY
 17 .debug_frame   00000bcc  00000000  00000000  0001b1b8  2**2  CONTENTS, READONLY, DEBUGGING, OCTETS
SYMBOL TABLE:
00000000 l    d  .text	00000000 .text
00002834 l    d  .gprof	00000000 .gprof
00002834 l    d  .ctors	00000000 .ctors
00002834 l    d  .dtors	00000000 .dtors
00002834 l    d  .rodata	00000000 .rodata
00002d20 l    d  .data	00000000 .data
00002d78 l    d  .bss	00000000 .bss
00003030 l    d  .heap	00000000 .heap
00003030 l    d  .stack	00000000 .stack
00000000 l    d  .debug_info	00000000 .debug_info
00000000 l    d  .debug_abbrev	00000000 .debug_abbrev
00000000 l    d  .debug_aranges	00000000 .debug_aranges
00000000 l    d  .debug_ranges	00000000 .debug_ranges
00000000 l    d  .debug_macro	00000000 .debug_macro
00000000 l    d  .debug_line	00000000 .debug_line
00000000 l    d  .debug_str	00000000 .debug_str
00000000 l    d  .comment	00000000 .comment
00000000 l    d  .debug_frame	00000000 .debug_frame
00000000 l    df *ABS*	00000000 ./src/bsp/driver/riscv_mc/crt0.o
00000b2e l       .text	00000000 crtInit
0000006a l       .text	00000000 __handle_isr
0000005a l       .text	00000000 __handle_esr
0000006e l       .text	00000000 __handle_exit
00000b4a l       .text	00000000 bss_init
00000b56 l       .text	00000000 bss_loop
00000b62 l       .text	00000000 bss_done
00000b68 l       .text	00000000 infinitLoop
00000000 l    df *ABS*	00000000 uart.c
00000946 l     F .text	00000076 history_up
000009bc l     F .text	0000006e history_down
000008b8 l     F .text	0000008e add_to_history
00000000 l    df *ABS*	00000000 spi_master.c
00000000 l    df *ABS*	00000000 exit.c
00000000 l    df *ABS*	00000000 interrupt.c
00000000 l    df *ABS*	00000000 iob.c
00002d8c l     O .bss	00000004 s_putc_func
00002d90 l     O .bss	00000004 s_getc_func
00002d94 l     O .bss	00000004 s_flush_func
00000ca4 l     F .text	00000038 iob_putc
00000cdc l     F .text	0000002c iob_getc
00000d08 l     F .text	0000002c iob_flush
00002d20 l     O .data	00000014 __stdio
00000000 l    df *ABS*	00000000 pic.c
00000000 l    df *ABS*	00000000 reg_access.c
00000000 l    df *ABS*	00000000 timer.c
00000f2c l     F .text	0000007e timer_isr
00002d9c l     O .bss	00000004 toggle.1
00000000 l    df *ABS*	00000000 gpio.c
00000000 l    df *ABS*	00000000 adc128.c
00000000 l    df *ABS*	00000000 main.c
0000142e l     F .text	0000005a lscc_uart_putc
00001488 l     F .text	00000014 lscc_uart_getc
0000149c l     F .text	00000014 lscc_uart_flush
000014b0 l     F .text	00000096 bsp_init
00000000 l    df *ABS*	00000000 parse_input.c
00002d34 l     O .data	00000040 memory
000016fa l     F .text	00000318 execute_command
00000000 l    df *ABS*	00000000 utils.c
00000000 l    df *ABS*	00000000 strncpy.c
00000000 l    df *ABS*	00000000 printf.c
00000000 l    df *ABS*	00000000 putchar.c
00000000 l    df *ABS*	00000000 puts.c
00000000 l    df *ABS*	00000000 sscanf.c
00000000 l    df *ABS*	00000000 vfiprintf.c
00001afa l     F .text	0000003e __ultoa_invert
00000000 l    df *ABS*	00000000 vfiscanf.c
00001fe8 l     F .text	00000016 scanf_getc
00001ffe l     F .text	00000018 scanf_ungetc
00002016 l     F .text	00000038 skip_spaces
0000204e l     F .text	00000034 putval
00000000 l    df *ABS*	00000000 strlen.c
00000000 l    df *ABS*	00000000 strchr.c
00000000 l    df *ABS*	00000000 strnlen.c
00000000 l    df *ABS*	00000000 fgetc.c
00000000 l    df *ABS*	00000000 filestrget.c
00000000 l    df *ABS*	00000000 fputc.c
00000000 l    df *ABS*	00000000 ungetc.c
00000000 l    df *ABS*	00000000 exchange.c
00000000 l    df *ABS*	00000000 compare_exchange.c
00001a6a g     F .text	0000000a putchar
0000135e g     F .text	000000d0 adc128_read_rtd
00000ad6 g     F .text	00000032 spi_isr
00001a44 g     F .text	00000026 printf
00003574 g       .data	00000000 __global_pointer$
000027dc g     F .text	00000028 .hidden __riscv_save_8
000027c4 g     F .text	00000010 __picolibc_non_atomic_compare_exchange_ungetc
000027b8  w    F .text	0000000c __atomic_exchange_ungetc
0000278a g     F .text	0000002e ungetc
00000ed6 g     F .text	0000002a reg_32b_write
00002828 g     F .text	0000000c .hidden __riscv_restore_3
00002814 g     F .text	00000020 .hidden __riscv_restore_10
000027dc g     F .text	00000028 .hidden __riscv_save_11
00002834 g       .text	00000000 _etext
00002e68 g     O .bss	00000018 m_timer
00000e38 g     F .text	00000038 pic_int_pending
00002834 g       .ctors	00000000 _ctors_end
00002828 g     F .text	0000000c .hidden __riscv_restore_2
00000b7c g     F .text	000000b2 irq_callback
0000270e g     F .text	00000048 getc
00000c2e g     F .text	00000044 esr_callback
00000abc g     F .text	0000001a spi_int_enable
00001a74 g     F .text	0000003e puts
000011fe g     F .text	0000008a timer_reload
00002d78 g       .bss	00000000 _bss_start
000027d4 g     F .text	00000030 .hidden __riscv_save_12
00000f00 g     F .text	0000002c reg_32b_read
00001b38 g     F .text	000004b0 __i_vfprintf
00002814 g     F .text	00000020 .hidden __riscv_restore_11
00001288 g     F .text	00000032 timer_test
00002804 g     F .text	0000000c .hidden __riscv_save_1
00002828 g     F .text	0000000c .hidden __riscv_restore_0
000027ea g     F .text	0000001a .hidden __riscv_save_7
00002d74 g     O .data	00000004 channel_value
0000281e g     F .text	00000016 .hidden __riscv_restore_5
0000119a g     F .text	00000064 timer_set_mtimecmp
00002d98 g     O .bss	00000004 pic_dev
00000c72 g     F .text	00000032 iob_init
000027c4  w    F .text	00000010 __atomic_compare_exchange_ungetc
00000b08 g     F .text	00000026 spi_get_value
000026f6 g     F .text	00000018 strnlen
0000281e g     F .text	00000016 .hidden __riscv_restore_6
00003030 g       .bss	00000000 _bss_end
00002082 g     F .text	00000482 __i_vfscanf
000027b8 g     F .text	0000000c __picolibc_non_atomic_exchange_ungetc
00000faa g     F .text	00000058 timer_init
00000094 g     F .text	0000021a uart_isr
00002da0 g     O .bss	00000080 history
000027dc g     F .text	00000028 .hidden __riscv_save_9
00002d78 g     O .bss	00000004 input_index
00002d80 g     O .bss	00000004 navigate_count
000027ea g     F .text	0000001a .hidden __riscv_save_4
00001002 g     F .text	0000009c timer_start
000002ae g     F .text	00000116 uart_init
00002804 g     F .text	0000000c .hidden __riscv_save_3
00002fb8 g     O .bss	00000058 uart_core_uart
00000000 g       .text	00000000 _ftext
00000000 g       .text	00000000 _start
00002834 g       .ctors	00000000 _ctors_start
00001a20 g     F .text	00000024 strncpy
00000dae g     F .text	00000030 pic_int_enable
00001ab2 g     F .text	00000048 sscanf
000027dc g     F .text	00000028 .hidden __riscv_save_10
0000281e g     F .text	00000016 .hidden __riscv_restore_4
00002814 g     F .text	00000020 .hidden __riscv_restore_8
000027ea g     F .text	0000001a .hidden __riscv_save_6
00003010 g     O .bss	00000020 rx_buf
00000a00 g       *ABS*	00000000 _STACK_SIZE
00002504 g     F .text	000000a8 memset
00002814 g     F .text	00000020 .hidden __riscv_restore_9
0000281e g     F .text	00000016 .hidden __riscv_restore_7
00001546 g     F .text	00000130 main
00000010 g       .text	00000000 trap_entry
00000000 g       *ABS*	00000000 _HEAP_SIZE
00000778 g     F .text	00000140 uart_putc
00000e12 g     F .text	00000026 pic_int_clear
00000a2a g     F .text	00000092 spi_master_init
00002d88 g     O .bss	00000004 spi_state
0000276a g     F .text	00000020 putc
000016e0 g     F .text	0000001a help
00002d84 g     O .bss	00000004 history_total_count
00000dde g     F .text	00000034 pic_int_disable
000025ac g     F .text	0000011e strcmp
000003c4 g     F .text	000003b4 uart_getline
00003a30 g       .stack	00000000 _stack_start
0000270e g     F .text	00000048 fgetc
00000d34 g     F .text	0000007a pic_init
00002e80 g     O .bss	00000030 spi_mast
00000e70 g     F .text	00000066 pic_isr_register
00002eb0 g     O .bss	00000108 gpio_inst
0000276a g     F .text	00000020 fputc
00002804 g     F .text	0000000c .hidden __riscv_save_2
00001102 g     F .text	00000098 timer_get_mtimecmp
000027ea g     F .text	0000001a .hidden __riscv_save_5
00002082 g     F .text	000004f2 vfscanf
00002e20 g     O .bss	00000048 int_table
00002810 g     F .text	00000024 .hidden __riscv_restore_12
00002804 g     F .text	0000000c .hidden __riscv_save_0
00002756 g     F .text	00000014 __file_str_get
00000b70  w    F .text	0000000c _exit
000026ca g     F .text	00000012 strlen
000028b4  w    O .rodata	0000000c __iob
00001a12  w    F .text	0000000e trap_init
000026dc g     F .text	0000001a strchr
00001676 g     F .text	0000006a parse_input
000012ba g     F .text	000000a4 gpio_init
00002828 g     F .text	0000000c .hidden __riscv_restore_1
00002834 g       .dtors	00000000 _dtors_start
0000109e g     F .text	00000064 timer_set_mtime
00001b38 g     F .text	000004ee vfprintf
00002d7c g     O .bss	00000004 navigate_index



Disassembly of section .text:

00000000 <_ftext>:
_ftext():
C:\Users\x-luo\proj\hw4\SW\riscv_mc_helloworld\Debug/../src/bsp/driver/riscv_mc/crt0.S:8
.global main
.weak   irq_callback
.weak   esr_callback

_start:
  j crtInit
       0:	32f0006f          	j	b2e <crtInit>
	...

00000010 <trap_entry>:
trap_entry():
C:\Users\x-luo\proj\hw4\SW\riscv_mc_helloworld\Debug/../src/bsp/driver/riscv_mc/crt0.S:13

.global  trap_entry
.align 4
trap_entry:
  sw x1,  - 1*4(sp)
      10:	fe112e23          	sw	ra,-4(sp)
C:\Users\x-luo\proj\hw4\SW\riscv_mc_helloworld\Debug/../src/bsp/driver/riscv_mc/crt0.S:14
  sw x5,  - 2*4(sp)
      14:	fe512c23          	sw	t0,-8(sp)
C:\Users\x-luo\proj\hw4\SW\riscv_mc_helloworld\Debug/../src/bsp/driver/riscv_mc/crt0.S:15
  sw x6,  - 3*4(sp)
      18:	fe612a23          	sw	t1,-12(sp)
C:\Users\x-luo\proj\hw4\SW\riscv_mc_helloworld\Debug/../src/bsp/driver/riscv_mc/crt0.S:16
  sw x7,  - 4*4(sp)
      1c:	fe712823          	sw	t2,-16(sp)
C:\Users\x-luo\proj\hw4\SW\riscv_mc_helloworld\Debug/../src/bsp/driver/riscv_mc/crt0.S:17
  sw x10, - 5*4(sp)
      20:	fea12623          	sw	a0,-20(sp)
C:\Users\x-luo\proj\hw4\SW\riscv_mc_helloworld\Debug/../src/bsp/driver/riscv_mc/crt0.S:18
  sw x11, - 6*4(sp)
      24:	feb12423          	sw	a1,-24(sp)
C:\Users\x-luo\proj\hw4\SW\riscv_mc_helloworld\Debug/../src/bsp/driver/riscv_mc/crt0.S:19
  sw x12, - 7*4(sp)
      28:	fec12223          	sw	a2,-28(sp)
C:\Users\x-luo\proj\hw4\SW\riscv_mc_helloworld\Debug/../src/bsp/driver/riscv_mc/crt0.S:20
  sw x13, - 8*4(sp)
      2c:	fed12023          	sw	a3,-32(sp)
C:\Users\x-luo\proj\hw4\SW\riscv_mc_helloworld\Debug/../src/bsp/driver/riscv_mc/crt0.S:21
  sw x14, - 9*4(sp)
      30:	fce12e23          	sw	a4,-36(sp)
C:\Users\x-luo\proj\hw4\SW\riscv_mc_helloworld\Debug/../src/bsp/driver/riscv_mc/crt0.S:22
  sw x15, -10*4(sp)
      34:	fcf12c23          	sw	a5,-40(sp)
C:\Users\x-luo\proj\hw4\SW\riscv_mc_helloworld\Debug/../src/bsp/driver/riscv_mc/crt0.S:23
  sw x16, -11*4(sp)
      38:	fd012a23          	sw	a6,-44(sp)
C:\Users\x-luo\proj\hw4\SW\riscv_mc_helloworld\Debug/../src/bsp/driver/riscv_mc/crt0.S:24
  sw x17, -12*4(sp)
      3c:	fd112823          	sw	a7,-48(sp)
C:\Users\x-luo\proj\hw4\SW\riscv_mc_helloworld\Debug/../src/bsp/driver/riscv_mc/crt0.S:25
  sw x28, -13*4(sp)
      40:	fdc12623          	sw	t3,-52(sp)
C:\Users\x-luo\proj\hw4\SW\riscv_mc_helloworld\Debug/../src/bsp/driver/riscv_mc/crt0.S:26
  sw x29, -14*4(sp)
      44:	fdd12423          	sw	t4,-56(sp)
C:\Users\x-luo\proj\hw4\SW\riscv_mc_helloworld\Debug/../src/bsp/driver/riscv_mc/crt0.S:27
  sw x30, -15*4(sp)
      48:	fde12223          	sw	t5,-60(sp)
C:\Users\x-luo\proj\hw4\SW\riscv_mc_helloworld\Debug/../src/bsp/driver/riscv_mc/crt0.S:28
  sw x31, -16*4(sp)
      4c:	fdf12023          	sw	t6,-64(sp)
C:\Users\x-luo\proj\hw4\SW\riscv_mc_helloworld\Debug/../src/bsp/driver/riscv_mc/crt0.S:29
  addi sp,sp,-16*4
      50:	7139                	addi	sp,sp,-64
C:\Users\x-luo\proj\hw4\SW\riscv_mc_helloworld\Debug/../src/bsp/driver/riscv_mc/crt0.S:30
  csrr a0, mcause    // load mcause value as parameter
      52:	34202573          	csrr	a0,mcause
C:\Users\x-luo\proj\hw4\SW\riscv_mc_helloworld\Debug/../src/bsp/driver/riscv_mc/crt0.S:31
  bltz a0, __handle_isr
      56:	00054a63          	bltz	a0,6a <__handle_isr>

0000005a <__handle_esr>:
__handle_esr():
C:\Users\x-luo\proj\hw4\SW\riscv_mc_helloworld\Debug/../src/bsp/driver/riscv_mc/crt0.S:33
__handle_esr:
  csrr a1, mepc
      5a:	341025f3          	csrr	a1,mepc
C:\Users\x-luo\proj\hw4\SW\riscv_mc_helloworld\Debug/../src/bsp/driver/riscv_mc/crt0.S:34
  mv   a2, sp
      5e:	860a                	mv	a2,sp
C:\Users\x-luo\proj\hw4\SW\riscv_mc_helloworld\Debug/../src/bsp/driver/riscv_mc/crt0.S:35
  call esr_callback
      60:	3cf000ef          	jal	ra,c2e <esr_callback>
      64:	34151073          	csrw	mepc,a0
C:\Users\x-luo\proj\hw4\SW\riscv_mc_helloworld\Debug/../src/bsp/driver/riscv_mc/crt0.S:36
  csrw mepc, a0
      68:	a019                	j	6e <__handle_exit>

0000006a <__handle_isr>:
__handle_isr():
C:\Users\x-luo\proj\hw4\SW\riscv_mc_helloworld\Debug/../src/bsp/driver/riscv_mc/crt0.S:36
      6a:	313000ef          	jal	ra,b7c <irq_callback>

0000006e <__handle_exit>:
__handle_exit():
C:\Users\x-luo\proj\hw4\SW\riscv_mc_helloworld\Debug/../src/bsp/driver/riscv_mc/crt0.S:39
  j    __handle_exit
__handle_isr:
  call irq_callback
      6e:	50f2                	lw	ra,60(sp)
      70:	52e2                	lw	t0,56(sp)
      72:	5352                	lw	t1,52(sp)
      74:	53c2                	lw	t2,48(sp)
C:\Users\x-luo\proj\hw4\SW\riscv_mc_helloworld\Debug/../src/bsp/driver/riscv_mc/crt0.S:41
__handle_exit:
  lw x1 , 15*4(sp)
      76:	5532                	lw	a0,44(sp)
C:\Users\x-luo\proj\hw4\SW\riscv_mc_helloworld\Debug/../src/bsp/driver/riscv_mc/crt0.S:42
  lw x5,  14*4(sp)
      78:	55a2                	lw	a1,40(sp)
C:\Users\x-luo\proj\hw4\SW\riscv_mc_helloworld\Debug/../src/bsp/driver/riscv_mc/crt0.S:43
  lw x6,  13*4(sp)
      7a:	5612                	lw	a2,36(sp)
C:\Users\x-luo\proj\hw4\SW\riscv_mc_helloworld\Debug/../src/bsp/driver/riscv_mc/crt0.S:44
  lw x7,  12*4(sp)
      7c:	5682                	lw	a3,32(sp)
C:\Users\x-luo\proj\hw4\SW\riscv_mc_helloworld\Debug/../src/bsp/driver/riscv_mc/crt0.S:45
  lw x10, 11*4(sp)
      7e:	4772                	lw	a4,28(sp)
C:\Users\x-luo\proj\hw4\SW\riscv_mc_helloworld\Debug/../src/bsp/driver/riscv_mc/crt0.S:46
  lw x11, 10*4(sp)
      80:	47e2                	lw	a5,24(sp)
C:\Users\x-luo\proj\hw4\SW\riscv_mc_helloworld\Debug/../src/bsp/driver/riscv_mc/crt0.S:47
  lw x12,  9*4(sp)
      82:	4852                	lw	a6,20(sp)
C:\Users\x-luo\proj\hw4\SW\riscv_mc_helloworld\Debug/../src/bsp/driver/riscv_mc/crt0.S:48
  lw x13,  8*4(sp)
      84:	48c2                	lw	a7,16(sp)
C:\Users\x-luo\proj\hw4\SW\riscv_mc_helloworld\Debug/../src/bsp/driver/riscv_mc/crt0.S:49
  lw x14,  7*4(sp)
      86:	4e32                	lw	t3,12(sp)
C:\Users\x-luo\proj\hw4\SW\riscv_mc_helloworld\Debug/../src/bsp/driver/riscv_mc/crt0.S:50
  lw x15,  6*4(sp)
      88:	4ea2                	lw	t4,8(sp)
C:\Users\x-luo\proj\hw4\SW\riscv_mc_helloworld\Debug/../src/bsp/driver/riscv_mc/crt0.S:51
  lw x16,  5*4(sp)
      8a:	4f12                	lw	t5,4(sp)
C:\Users\x-luo\proj\hw4\SW\riscv_mc_helloworld\Debug/../src/bsp/driver/riscv_mc/crt0.S:52
  lw x17,  4*4(sp)
      8c:	4f82                	lw	t6,0(sp)
C:\Users\x-luo\proj\hw4\SW\riscv_mc_helloworld\Debug/../src/bsp/driver/riscv_mc/crt0.S:53
  lw x28,  3*4(sp)
      8e:	6121                	addi	sp,sp,64
C:\Users\x-luo\proj\hw4\SW\riscv_mc_helloworld\Debug/../src/bsp/driver/riscv_mc/crt0.S:54
  lw x29,  2*4(sp)
      90:	30200073          	mret

00000094 <uart_isr>:
uart_isr():
C:\Users\x-luo\proj\hw4\SW\riscv_mc_helloworld\Debug/../src/bsp/driver/riscv_mc/crt0.S:56
  lw x30,  1*4(sp)
  lw x31,  0*4(sp)
      94:	7179                	addi	sp,sp,-48
C:\Users\x-luo\proj\hw4\SW\riscv_mc_helloworld\Debug/../src/bsp/driver/riscv_mc/crt0.S:57
  addi sp,sp,16*4
      96:	d622                	sw	s0,44(sp)
C:\Users\x-luo\proj\hw4\SW\riscv_mc_helloworld\Debug/../src/bsp/driver/riscv_mc/crt0.S:58
  mret
      98:	1800                	addi	s0,sp,48
      9a:	fca42e23          	sw	a0,-36(s0)
C:\Users\x-luo\proj\hw4\SW\riscv_mc_helloworld\Debug/../src/bsp/driver/uart/uart.c:75
	struct uart_instance *uart;
	volatile struct uart_dev *dev;
	unsigned char iir;
	unsigned char ier;

	uart = (struct uart_instance *) ctx;
      9e:	fdc42783          	lw	a5,-36(s0)
      a2:	fef42423          	sw	a5,-24(s0)
C:\Users\x-luo\proj\hw4\SW\riscv_mc_helloworld\Debug/../src/bsp/driver/uart/uart.c:76
	dev = (volatile struct uart_dev *) (uart->base);
      a6:	fe842783          	lw	a5,-24(s0)
      aa:	43dc                	lw	a5,4(a5)
      ac:	fef42223          	sw	a5,-28(s0)
C:\Users\x-luo\proj\hw4\SW\riscv_mc_helloworld\Debug/../src/bsp/driver/uart/uart.c:79

	/* interrogate interrupt-cause */
	iir = dev->iir;
      b0:	fe442783          	lw	a5,-28(s0)
      b4:	479c                	lw	a5,8(a5)
      b6:	fef401a3          	sb	a5,-29(s0)
C:\Users\x-luo\proj\hw4\SW\riscv_mc_helloworld\Debug/../src/bsp/driver/uart/uart.c:80
	ier = dev->ier;
      ba:	fe442783          	lw	a5,-28(s0)
      be:	43dc                	lw	a5,4(a5)
      c0:	fef40123          	sb	a5,-30(s0)
C:\Users\x-luo\proj\hw4\SW\riscv_mc_helloworld\Debug/../src/bsp/driver/uart/uart.c:83

	/* see if the interrupt is due to rx-data */
	switch (iir) {
      c4:	fe344783          	lbu	a5,-29(s0)
      c8:	4709                	li	a4,2
      ca:	0ce78463          	beq	a5,a4,192 <uart_isr+0xfe>
      ce:	4711                	li	a4,4
      d0:	1ce79863          	bne	a5,a4,2a0 <uart_isr+0x20c>
C:\Users\x-luo\proj\hw4\SW\riscv_mc_helloworld\Debug/../src/bsp/driver/uart/uart.c:90
		{
			/*
			 * read lsr to check for errors associated with current word.
			 * reading lsr clears error bits
			 */
			unsigned char lsr = dev->lsr;
      d4:	fe442783          	lw	a5,-28(s0)
      d8:	4bdc                	lw	a5,20(a5)
      da:	fef400a3          	sb	a5,-31(s0)
C:\Users\x-luo\proj\hw4\SW\riscv_mc_helloworld\Debug/../src/bsp/driver/uart/uart.c:93

			/* read the data into the buffer */
			uart->rxBuffer[uart->rxWriteLoc] = dev->rxtx;
      de:	fe442783          	lw	a5,-28(s0)
      e2:	4398                	lw	a4,0(a5)
      e4:	fe842783          	lw	a5,-24(s0)
      e8:	0447c783          	lbu	a5,68(a5)
      ec:	86be                	mv	a3,a5
      ee:	0ff77713          	zext.b	a4,a4
      f2:	fe842783          	lw	a5,-24(s0)
      f6:	97b6                	add	a5,a5,a3
      f8:	02e78223          	sb	a4,36(a5)
C:\Users\x-luo\proj\hw4\SW\riscv_mc_helloworld\Debug/../src/bsp/driver/uart/uart.c:97
			//dev->rxtx = uart->rxBuffer[uart->rxWriteLoc];

			/* check for error(s) with the current word */
			if ((lsr & (UART_LSR_PE_MASK | UART_LSR_FE_MASK))
      fc:	fe144783          	lbu	a5,-31(s0)
     100:	8bb1                	andi	a5,a5,12
     102:	1a079163          	bnez	a5,2a4 <uart_isr+0x210>
C:\Users\x-luo\proj\hw4\SW\riscv_mc_helloworld\Debug/../src/bsp/driver/uart/uart.c:100
			    == 0) {
				/* no error detected, adjust rx buffer pointers */
				uart->rxWriteLoc++;
     106:	fe842783          	lw	a5,-24(s0)
     10a:	0447c783          	lbu	a5,68(a5)
     10e:	0785                	addi	a5,a5,1
     110:	0ff7f713          	zext.b	a4,a5
     114:	fe842783          	lw	a5,-24(s0)
     118:	04e78223          	sb	a4,68(a5)
C:\Users\x-luo\proj\hw4\SW\riscv_mc_helloworld\Debug/../src/bsp/driver/uart/uart.c:101
				if (uart->rxWriteLoc >= uart->rxBufferSize) {
     11c:	fe842783          	lw	a5,-24(s0)
     120:	0447c703          	lbu	a4,68(a5)
     124:	fe842783          	lw	a5,-24(s0)
     128:	01c7c783          	lbu	a5,28(a5)
     12c:	00f76663          	bltu	a4,a5,138 <uart_isr+0xa4>
C:\Users\x-luo\proj\hw4\SW\riscv_mc_helloworld\Debug/../src/bsp/driver/uart/uart.c:102
					uart->rxWriteLoc = 0;
     130:	fe842783          	lw	a5,-24(s0)
     134:	04078223          	sb	zero,68(a5)
C:\Users\x-luo\proj\hw4\SW\riscv_mc_helloworld\Debug/../src/bsp/driver/uart/uart.c:104
				}
				uart->rxDataBytes++;
     138:	fe842783          	lw	a5,-24(s0)
     13c:	04d7c783          	lbu	a5,77(a5)
     140:	0ff7f793          	zext.b	a5,a5
     144:	0785                	addi	a5,a5,1
     146:	0ff7f713          	zext.b	a4,a5
     14a:	fe842783          	lw	a5,-24(s0)
     14e:	04e786a3          	sb	a4,77(a5)
C:\Users\x-luo\proj\hw4\SW\riscv_mc_helloworld\Debug/../src/bsp/driver/uart/uart.c:107

				/* if buffer's full, disable interrupts */
				if (uart->rxDataBytes ==
     152:	fe842783          	lw	a5,-24(s0)
     156:	04d7c783          	lbu	a5,77(a5)
     15a:	0ff7f713          	zext.b	a4,a5
C:\Users\x-luo\proj\hw4\SW\riscv_mc_helloworld\Debug/../src/bsp/driver/uart/uart.c:108
				    uart->rxBufferSize) {
     15e:	fe842783          	lw	a5,-24(s0)
     162:	01c7c783          	lbu	a5,28(a5)
C:\Users\x-luo\proj\hw4\SW\riscv_mc_helloworld\Debug/../src/bsp/driver/uart/uart.c:107
				if (uart->rxDataBytes ==
     166:	12f71f63          	bne	a4,a5,2a4 <uart_isr+0x210>
C:\Users\x-luo\proj\hw4\SW\riscv_mc_helloworld\Debug/../src/bsp/driver/uart/uart.c:109
					uart->ier &=
     16a:	fe842783          	lw	a5,-24(s0)
     16e:	0547c783          	lbu	a5,84(a5)
     172:	9bf9                	andi	a5,a5,-2
     174:	0ff7f713          	zext.b	a4,a5
     178:	fe842783          	lw	a5,-24(s0)
     17c:	04e78a23          	sb	a4,84(a5)
C:\Users\x-luo\proj\hw4\SW\riscv_mc_helloworld\Debug/../src/bsp/driver/uart/uart.c:111
					    (~UART_IER_RX_INT_MASK);
					dev->ier = uart->ier;
     180:	fe842783          	lw	a5,-24(s0)
     184:	0547c783          	lbu	a5,84(a5)
     188:	873e                	mv	a4,a5
     18a:	fe442783          	lw	a5,-28(s0)
     18e:	c3d8                	sw	a4,4(a5)
C:\Users\x-luo\proj\hw4\SW\riscv_mc_helloworld\Debug/../src/bsp/driver/uart/uart.c:115
				}
			}
		}
		break;
     190:	aa11                	j	2a4 <uart_isr+0x210>
C:\Users\x-luo\proj\hw4\SW\riscv_mc_helloworld\Debug/../src/bsp/driver/uart/uart.c:120

	case UART_IIR_TXRDY:
		{
			unsigned int count;
			if (uart->fifoenable) {
     192:	fe842783          	lw	a5,-24(s0)
     196:	539c                	lw	a5,32(a5)
     198:	c78d                	beqz	a5,1c2 <uart_isr+0x12e>
C:\Users\x-luo\proj\hw4\SW\riscv_mc_helloworld\Debug/../src/bsp/driver/uart/uart.c:123
				/* see if there's stuff to transmit */
				count =
				    (uart->txDataBytes >
     19a:	fe842783          	lw	a5,-24(s0)
     19e:	04c7c783          	lbu	a5,76(a5)
     1a2:	0ff7f713          	zext.b	a4,a5
C:\Users\x-luo\proj\hw4\SW\riscv_mc_helloworld\Debug/../src/bsp/driver/uart/uart.c:124
				     16) ? 16 : uart->txDataBytes;
     1a6:	47c1                	li	a5,16
     1a8:	00e7e963          	bltu	a5,a4,1ba <uart_isr+0x126>
C:\Users\x-luo\proj\hw4\SW\riscv_mc_helloworld\Debug/../src/bsp/driver/uart/uart.c:124 (discriminator 1)
     1ac:	fe842783          	lw	a5,-24(s0)
     1b0:	04c7c783          	lbu	a5,76(a5)
     1b4:	0ff7f793          	zext.b	a5,a5
     1b8:	a011                	j	1bc <uart_isr+0x128>
C:\Users\x-luo\proj\hw4\SW\riscv_mc_helloworld\Debug/../src/bsp/driver/uart/uart.c:124 (discriminator 2)
     1ba:	47c1                	li	a5,16
C:\Users\x-luo\proj\hw4\SW\riscv_mc_helloworld\Debug/../src/bsp/driver/uart/uart.c:122
				count =
     1bc:	fef42623          	sw	a5,-20(s0)
     1c0:	a8d1                	j	294 <uart_isr+0x200>
C:\Users\x-luo\proj\hw4\SW\riscv_mc_helloworld\Debug/../src/bsp/driver/uart/uart.c:127
				//count = 16;
			} else {
				count = (uart->txDataBytes == 0) ? 0 : 1;
     1c2:	fe842783          	lw	a5,-24(s0)
     1c6:	04c7c783          	lbu	a5,76(a5)
     1ca:	0ff7f793          	zext.b	a5,a5
     1ce:	00f037b3          	snez	a5,a5
     1d2:	0ff7f793          	zext.b	a5,a5
     1d6:	fef42623          	sw	a5,-20(s0)
C:\Users\x-luo\proj\hw4\SW\riscv_mc_helloworld\Debug/../src/bsp/driver/uart/uart.c:133
				//count = 1;
			}
			/* put 16 data words to the TX FIFO of
			 * the UART if data is available
			 */
			while (count != 0) {
     1da:	a86d                	j	294 <uart_isr+0x200>
C:\Users\x-luo\proj\hw4\SW\riscv_mc_helloworld\Debug/../src/bsp/driver/uart/uart.c:134
				if (uart->txDataBytes == 1) {
     1dc:	fe842783          	lw	a5,-24(s0)
     1e0:	04c7c783          	lbu	a5,76(a5)
     1e4:	0ff7f713          	zext.b	a4,a5
     1e8:	4785                	li	a5,1
     1ea:	02f71563          	bne	a4,a5,214 <uart_isr+0x180>
C:\Users\x-luo\proj\hw4\SW\riscv_mc_helloworld\Debug/../src/bsp/driver/uart/uart.c:136
					/* disable tx interrupts as this is the last data to send */
					uart->ier &=
     1ee:	fe842783          	lw	a5,-24(s0)
     1f2:	0547c783          	lbu	a5,84(a5)
     1f6:	9bf5                	andi	a5,a5,-3
     1f8:	0ff7f713          	zext.b	a4,a5
     1fc:	fe842783          	lw	a5,-24(s0)
     200:	04e78a23          	sb	a4,84(a5)
C:\Users\x-luo\proj\hw4\SW\riscv_mc_helloworld\Debug/../src/bsp/driver/uart/uart.c:138
					    (~UART_IER_TX_INT_MASK);
					dev->ier = uart->ier;
     204:	fe842783          	lw	a5,-24(s0)
     208:	0547c783          	lbu	a5,84(a5)
     20c:	873e                	mv	a4,a5
     20e:	fe442783          	lw	a5,-28(s0)
     212:	c3d8                	sw	a4,4(a5)
C:\Users\x-luo\proj\hw4\SW\riscv_mc_helloworld\Debug/../src/bsp/driver/uart/uart.c:141
				}
				dev->rxtx =
				    uart->txBuffer[uart->txReadLoc];
     214:	fe842783          	lw	a5,-24(s0)
     218:	0477c783          	lbu	a5,71(a5)
     21c:	873e                	mv	a4,a5
     21e:	fe842783          	lw	a5,-24(s0)
     222:	97ba                	add	a5,a5,a4
     224:	0347c783          	lbu	a5,52(a5)
     228:	873e                	mv	a4,a5
C:\Users\x-luo\proj\hw4\SW\riscv_mc_helloworld\Debug/../src/bsp/driver/uart/uart.c:140
				dev->rxtx =
     22a:	fe442783          	lw	a5,-28(s0)
     22e:	c398                	sw	a4,0(a5)
C:\Users\x-luo\proj\hw4\SW\riscv_mc_helloworld\Debug/../src/bsp/driver/uart/uart.c:142
				uart->txReadLoc++;
     230:	fe842783          	lw	a5,-24(s0)
     234:	0477c783          	lbu	a5,71(a5)
     238:	0785                	addi	a5,a5,1
     23a:	0ff7f713          	zext.b	a4,a5
     23e:	fe842783          	lw	a5,-24(s0)
     242:	04e783a3          	sb	a4,71(a5)
C:\Users\x-luo\proj\hw4\SW\riscv_mc_helloworld\Debug/../src/bsp/driver/uart/uart.c:143
				if (uart->txReadLoc >= uart->txBufferSize) {
     246:	fe842783          	lw	a5,-24(s0)
     24a:	0477c703          	lbu	a4,71(a5)
     24e:	fe842783          	lw	a5,-24(s0)
     252:	01d7c783          	lbu	a5,29(a5)
     256:	00f76663          	bltu	a4,a5,262 <uart_isr+0x1ce>
C:\Users\x-luo\proj\hw4\SW\riscv_mc_helloworld\Debug/../src/bsp/driver/uart/uart.c:144
					uart->txReadLoc = 0;
     25a:	fe842783          	lw	a5,-24(s0)
     25e:	040783a3          	sb	zero,71(a5)
C:\Users\x-luo\proj\hw4\SW\riscv_mc_helloworld\Debug/../src/bsp/driver/uart/uart.c:146
				}
				--uart->txDataBytes;
     262:	fe842783          	lw	a5,-24(s0)
     266:	04c7c783          	lbu	a5,76(a5)
     26a:	0ff7f793          	zext.b	a5,a5
     26e:	17fd                	addi	a5,a5,-1
     270:	0ff7f713          	zext.b	a4,a5
     274:	fe842783          	lw	a5,-24(s0)
     278:	04e78623          	sb	a4,76(a5)
C:\Users\x-luo\proj\hw4\SW\riscv_mc_helloworld\Debug/../src/bsp/driver/uart/uart.c:147
				--count;
     27c:	fec42783          	lw	a5,-20(s0)
     280:	17fd                	addi	a5,a5,-1
     282:	fef42623          	sw	a5,-20(s0)
C:\Users\x-luo\proj\hw4\SW\riscv_mc_helloworld\Debug/../src/bsp/driver/uart/uart.c:149
#if 1
				if (uart->txDataBytes == 0) {
     286:	fe842783          	lw	a5,-24(s0)
     28a:	04c7c783          	lbu	a5,76(a5)
     28e:	0ff7f793          	zext.b	a5,a5
     292:	c789                	beqz	a5,29c <uart_isr+0x208>
C:\Users\x-luo\proj\hw4\SW\riscv_mc_helloworld\Debug/../src/bsp/driver/uart/uart.c:133
			while (count != 0) {
     294:	fec42783          	lw	a5,-20(s0)
     298:	f3b1                	bnez	a5,1dc <uart_isr+0x148>
C:\Users\x-luo\proj\hw4\SW\riscv_mc_helloworld\Debug/../src/bsp/driver/uart/uart.c:155
					break;
				}
#endif
			}
		}
		break;
     29a:	a031                	j	2a6 <uart_isr+0x212>
C:\Users\x-luo\proj\hw4\SW\riscv_mc_helloworld\Debug/../src/bsp/driver/uart/uart.c:150
					break;
     29c:	0001                	nop
C:\Users\x-luo\proj\hw4\SW\riscv_mc_helloworld\Debug/../src/bsp/driver/uart/uart.c:155
		break;
     29e:	a021                	j	2a6 <uart_isr+0x212>
C:\Users\x-luo\proj\hw4\SW\riscv_mc_helloworld\Debug/../src/bsp/driver/uart/uart.c:165
			 * This will never happen unless someone's reading rx
			 * in parallel.  If using interrupts, isr is the only
			 * code that should be reading rx
			 */
		}
		break;
     2a0:	0001                	nop
     2a2:	a011                	j	2a6 <uart_isr+0x212>
C:\Users\x-luo\proj\hw4\SW\riscv_mc_helloworld\Debug/../src/bsp/driver/uart/uart.c:115
		break;
     2a4:	0001                	nop
C:\Users\x-luo\proj\hw4\SW\riscv_mc_helloworld\Debug/../src/bsp/driver/uart/uart.c:169
	}

	/* all done */
	return;
     2a6:	0001                	nop
C:\Users\x-luo\proj\hw4\SW\riscv_mc_helloworld\Debug/../src/bsp/driver/uart/uart.c:170
}
     2a8:	5432                	lw	s0,44(sp)
     2aa:	6145                	addi	sp,sp,48
     2ac:	8082                	ret

000002ae <uart_init>:
uart_init():
C:\Users\x-luo\proj\hw4\SW\riscv_mc_helloworld\Debug/../src/bsp/driver/uart/uart.c:178
unsigned char uart_init(struct uart_instance *this_uart,
			unsigned int base_addr,
			unsigned int sys_clk,
			unsigned int baud_rate,
			unsigned char stop_bits, unsigned char data_width)
{
     2ae:	7139                	addi	sp,sp,-64
     2b0:	de06                	sw	ra,60(sp)
     2b2:	dc22                	sw	s0,56(sp)
     2b4:	0080                	addi	s0,sp,64
     2b6:	fca42e23          	sw	a0,-36(s0)
     2ba:	fcb42c23          	sw	a1,-40(s0)
     2be:	fcc42a23          	sw	a2,-44(s0)
     2c2:	fcd42823          	sw	a3,-48(s0)
     2c6:	86ba                	mv	a3,a4
     2c8:	873e                	mv	a4,a5
     2ca:	87b6                	mv	a5,a3
     2cc:	fcf407a3          	sb	a5,-49(s0)
     2d0:	87ba                	mv	a5,a4
     2d2:	fcf40723          	sb	a5,-50(s0)
C:\Users\x-luo\proj\hw4\SW\riscv_mc_helloworld\Debug/../src/bsp/driver/uart/uart.c:180
	volatile struct uart_dev *dev;
	if (NULL == this_uart) {
     2d6:	fdc42783          	lw	a5,-36(s0)
     2da:	e399                	bnez	a5,2e0 <uart_init+0x32>
C:\Users\x-luo\proj\hw4\SW\riscv_mc_helloworld\Debug/../src/bsp/driver/uart/uart.c:181
		return 1;
     2dc:	4785                	li	a5,1
     2de:	a8f1                	j	3ba <uart_init+0x10c>
C:\Users\x-luo\proj\hw4\SW\riscv_mc_helloworld\Debug/../src/bsp/driver/uart/uart.c:183
	}
	this_uart->base = base_addr;
     2e0:	fdc42783          	lw	a5,-36(s0)
     2e4:	fd842703          	lw	a4,-40(s0)
     2e8:	c3d8                	sw	a4,4(a5)
C:\Users\x-luo\proj\hw4\SW\riscv_mc_helloworld\Debug/../src/bsp/driver/uart/uart.c:184
	dev = (volatile struct uart_dev *) (this_uart->base);
     2ea:	fdc42783          	lw	a5,-36(s0)
     2ee:	43dc                	lw	a5,4(a5)
     2f0:	fef42623          	sw	a5,-20(s0)
C:\Users\x-luo\proj\hw4\SW\riscv_mc_helloworld\Debug/../src/bsp/driver/uart/uart.c:187

	/*initialize the instance data */
	this_uart->base = base_addr;
     2f4:	fdc42783          	lw	a5,-36(s0)
     2f8:	fd842703          	lw	a4,-40(s0)
     2fc:	c3d8                	sw	a4,4(a5)
C:\Users\x-luo\proj\hw4\SW\riscv_mc_helloworld\Debug/../src/bsp/driver/uart/uart.c:188
	this_uart->sys_clk = sys_clk;
     2fe:	fdc42783          	lw	a5,-36(s0)
     302:	fd442703          	lw	a4,-44(s0)
     306:	c798                	sw	a4,8(a5)
C:\Users\x-luo\proj\hw4\SW\riscv_mc_helloworld\Debug/../src/bsp/driver/uart/uart.c:189
	this_uart->baudrate = baud_rate;
     308:	fdc42783          	lw	a5,-36(s0)
     30c:	fd042703          	lw	a4,-48(s0)
     310:	cb98                	sw	a4,16(a5)
C:\Users\x-luo\proj\hw4\SW\riscv_mc_helloworld\Debug/../src/bsp/driver/uart/uart.c:190
	this_uart->databits = data_width;
     312:	fce44703          	lbu	a4,-50(s0)
     316:	fdc42783          	lw	a5,-36(s0)
     31a:	cbd8                	sw	a4,20(a5)
C:\Users\x-luo\proj\hw4\SW\riscv_mc_helloworld\Debug/../src/bsp/driver/uart/uart.c:191
	this_uart->stopbits = stop_bits;
     31c:	fcf44703          	lbu	a4,-49(s0)
     320:	fdc42783          	lw	a5,-36(s0)
     324:	cf98                	sw	a4,24(a5)
C:\Users\x-luo\proj\hw4\SW\riscv_mc_helloworld\Debug/../src/bsp/driver/uart/uart.c:196

	/* set the data-configuration */
	//uart_config(this_uart, 8, 0, 0, 1);

	this_uart->blockingTx = 1;
     326:	fdc42783          	lw	a5,-36(s0)
     32a:	4705                	li	a4,1
     32c:	00e78f23          	sb	a4,30(a5)
C:\Users\x-luo\proj\hw4\SW\riscv_mc_helloworld\Debug/../src/bsp/driver/uart/uart.c:198
#if _UART_ENABLE_INTERRUPTS_
	this_uart->intrAvail = true;
     330:	fdc42783          	lw	a5,-36(s0)
     334:	4705                	li	a4,1
     336:	00e786a3          	sb	a4,13(a5)
C:\Users\x-luo\proj\hw4\SW\riscv_mc_helloworld\Debug/../src/bsp/driver/uart/uart.c:201

	/* If interrupts are available use interrupt-mode */
	if (this_uart->intrAvail) {
     33a:	fdc42783          	lw	a5,-36(s0)
     33e:	00d7c783          	lbu	a5,13(a5)
     342:	cbbd                	beqz	a5,3b8 <uart_init+0x10a>
C:\Users\x-luo\proj\hw4\SW\riscv_mc_helloworld\Debug/../src/bsp/driver/uart/uart.c:204

		/* initialize buffer-related parameters */
		this_uart->txDataBytes = 0;
     344:	fdc42783          	lw	a5,-36(s0)
     348:	04078623          	sb	zero,76(a5)
C:\Users\x-luo\proj\hw4\SW\riscv_mc_helloworld\Debug/../src/bsp/driver/uart/uart.c:205
		this_uart->rxDataBytes = 0;
     34c:	fdc42783          	lw	a5,-36(s0)
     350:	040786a3          	sb	zero,77(a5)
C:\Users\x-luo\proj\hw4\SW\riscv_mc_helloworld\Debug/../src/bsp/driver/uart/uart.c:206
		this_uart->txReadLoc = 0;
     354:	fdc42783          	lw	a5,-36(s0)
     358:	040783a3          	sb	zero,71(a5)
C:\Users\x-luo\proj\hw4\SW\riscv_mc_helloworld\Debug/../src/bsp/driver/uart/uart.c:207
		this_uart->txWriteLoc = 0;
     35c:	fdc42783          	lw	a5,-36(s0)
     360:	04078323          	sb	zero,70(a5)
C:\Users\x-luo\proj\hw4\SW\riscv_mc_helloworld\Debug/../src/bsp/driver/uart/uart.c:208
		this_uart->rxReadLoc = 0;
     364:	fdc42783          	lw	a5,-36(s0)
     368:	040782a3          	sb	zero,69(a5)
C:\Users\x-luo\proj\hw4\SW\riscv_mc_helloworld\Debug/../src/bsp/driver/uart/uart.c:209
		this_uart->rxWriteLoc = 0;
     36c:	fdc42783          	lw	a5,-36(s0)
     370:	04078223          	sb	zero,68(a5)
C:\Users\x-luo\proj\hw4\SW\riscv_mc_helloworld\Debug/../src/bsp/driver/uart/uart.c:210
		this_uart->rxBufferSize = UART_BUFFER_SIZE;
     374:	fdc42783          	lw	a5,-36(s0)
     378:	4741                	li	a4,16
     37a:	00e78e23          	sb	a4,28(a5)
C:\Users\x-luo\proj\hw4\SW\riscv_mc_helloworld\Debug/../src/bsp/driver/uart/uart.c:211
		this_uart->txBufferSize = UART_BUFFER_SIZE;
     37e:	fdc42783          	lw	a5,-36(s0)
     382:	4741                	li	a4,16
     384:	00e78ea3          	sb	a4,29(a5)
C:\Users\x-luo\proj\hw4\SW\riscv_mc_helloworld\Debug/../src/bsp/driver/uart/uart.c:216
		/*
		 * Don't enable transmit interrupt as the write-function takes care of
		 * doing that
		 */
		this_uart->ier = UART_IER_RX_INT_MASK;
     388:	fdc42783          	lw	a5,-36(s0)
     38c:	4705                	li	a4,1
     38e:	04e78a23          	sb	a4,84(a5)
C:\Users\x-luo\proj\hw4\SW\riscv_mc_helloworld\Debug/../src/bsp/driver/uart/uart.c:217
		dev->ier = this_uart->ier;
     392:	fdc42783          	lw	a5,-36(s0)
     396:	0547c783          	lbu	a5,84(a5)
     39a:	873e                	mv	a4,a5
     39c:	fec42783          	lw	a5,-20(s0)
     3a0:	c3d8                	sw	a4,4(a5)
C:\Users\x-luo\proj\hw4\SW\riscv_mc_helloworld\Debug/../src/bsp/driver/uart/uart.c:220

		/* Register interrupt-handler for this uart's interrupt */
		pic_isr_register(this_uart->intrLevel, uart_isr, this_uart);	//uart_isr have two parameter!!!!!
     3a2:	fdc42783          	lw	a5,-36(s0)
     3a6:	00c7c703          	lbu	a4,12(a5)
     3aa:	fdc42603          	lw	a2,-36(s0)
     3ae:	09400593          	li	a1,148
     3b2:	853a                	mv	a0,a4
     3b4:	2bd000ef          	jal	ra,e70 <pic_isr_register>
C:\Users\x-luo\proj\hw4\SW\riscv_mc_helloworld\Debug/../src/bsp/driver/uart/uart.c:225
	}
#endif

	/* all done! */
	return 0;
     3b8:	4781                	li	a5,0
C:\Users\x-luo\proj\hw4\SW\riscv_mc_helloworld\Debug/../src/bsp/driver/uart/uart.c:226
}
     3ba:	853e                	mv	a0,a5
     3bc:	50f2                	lw	ra,60(sp)
     3be:	5462                	lw	s0,56(sp)
     3c0:	6121                	addi	sp,sp,64
     3c2:	8082                	ret

000003c4 <uart_getline>:
uart_getline():
C:\Users\x-luo\proj\hw4\SW\riscv_mc_helloworld\Debug/../src/bsp/driver/uart/uart.c:299
 * return -1, when input excese buffer can contain.
 * will block caller,
 */
unsigned int uart_getline(struct uart_instance *this_uart,
			unsigned char *buf, int buf_size)
{
     3c4:	7139                	addi	sp,sp,-64
     3c6:	de06                	sw	ra,60(sp)
     3c8:	dc22                	sw	s0,56(sp)
     3ca:	0080                	addi	s0,sp,64
     3cc:	fca42623          	sw	a0,-52(s0)
     3d0:	fcb42423          	sw	a1,-56(s0)
     3d4:	fcc42223          	sw	a2,-60(s0)
C:\Users\x-luo\proj\hw4\SW\riscv_mc_helloworld\Debug/../src/bsp/driver/uart/uart.c:300
	int escape = 0;
     3d8:	fe042623          	sw	zero,-20(s0)
C:\Users\x-luo\proj\hw4\SW\riscv_mc_helloworld\Debug/../src/bsp/driver/uart/uart.c:303
	volatile unsigned char uiValue;
	volatile struct uart_dev *dev;
	if (NULL == this_uart) {
     3dc:	fcc42783          	lw	a5,-52(s0)
     3e0:	e399                	bnez	a5,3e6 <uart_getline+0x22>
C:\Users\x-luo\proj\hw4\SW\riscv_mc_helloworld\Debug/../src/bsp/driver/uart/uart.c:304
		return 1;
     3e2:	4785                	li	a5,1
     3e4:	a669                	j	76e <uart_getline+0x3aa>
C:\Users\x-luo\proj\hw4\SW\riscv_mc_helloworld\Debug/../src/bsp/driver/uart/uart.c:306
	}
	if (buf == 0)
     3e6:	fc842783          	lw	a5,-56(s0)
     3ea:	e399                	bnez	a5,3f0 <uart_getline+0x2c>
C:\Users\x-luo\proj\hw4\SW\riscv_mc_helloworld\Debug/../src/bsp/driver/uart/uart.c:307
		return (UART_ERR_INVALID_ARGUMENT);
     3ec:	478d                	li	a5,3
     3ee:	a641                	j	76e <uart_getline+0x3aa>
C:\Users\x-luo\proj\hw4\SW\riscv_mc_helloworld\Debug/../src/bsp/driver/uart/uart.c:309

	dev = (volatile struct uart_dev *) (this_uart->base);
     3f0:	fcc42783          	lw	a5,-52(s0)
     3f4:	43dc                	lw	a5,4(a5)
     3f6:	fef42223          	sw	a5,-28(s0)
C:\Users\x-luo\proj\hw4\SW\riscv_mc_helloworld\Debug/../src/bsp/driver/uart/uart.c:311

	int i = 0;
     3fa:	fe042423          	sw	zero,-24(s0)
C:\Users\x-luo\proj\hw4\SW\riscv_mc_helloworld\Debug/../src/bsp/driver/uart/uart.c:314
	do{
#if _UART_ENABLE_INTERRUPTS_
		if (this_uart->intrAvail) {
     3fe:	fcc42783          	lw	a5,-52(s0)
     402:	00d7c783          	lbu	a5,13(a5)
     406:	2e078163          	beqz	a5,6e8 <uart_getline+0x324>
C:\Users\x-luo\proj\hw4\SW\riscv_mc_helloworld\Debug/../src/bsp/driver/uart/uart.c:317

			/* using interrupts */
			if (this_uart->rxDataBytes > 0) {
     40a:	fcc42783          	lw	a5,-52(s0)
     40e:	04d7c783          	lbu	a5,77(a5)
     412:	0ff7f793          	zext.b	a5,a5
     416:	34078463          	beqz	a5,75e <uart_getline+0x39a>
C:\Users\x-luo\proj\hw4\SW\riscv_mc_helloworld\Debug/../src/bsp/driver/uart/uart.c:318
				buf[i] = this_uart->rxBuffer[this_uart->rxReadLoc];
     41a:	fcc42783          	lw	a5,-52(s0)
     41e:	0457c783          	lbu	a5,69(a5)
     422:	86be                	mv	a3,a5
     424:	fe842783          	lw	a5,-24(s0)
     428:	fc842703          	lw	a4,-56(s0)
     42c:	97ba                	add	a5,a5,a4
     42e:	fcc42703          	lw	a4,-52(s0)
     432:	9736                	add	a4,a4,a3
     434:	02474703          	lbu	a4,36(a4)
     438:	00e78023          	sb	a4,0(a5)
C:\Users\x-luo\proj\hw4\SW\riscv_mc_helloworld\Debug/../src/bsp/driver/uart/uart.c:319
				this_uart->rxReadLoc++;
     43c:	fcc42783          	lw	a5,-52(s0)
     440:	0457c783          	lbu	a5,69(a5)
     444:	0785                	addi	a5,a5,1
     446:	0ff7f713          	zext.b	a4,a5
     44a:	fcc42783          	lw	a5,-52(s0)
     44e:	04e782a3          	sb	a4,69(a5)
C:\Users\x-luo\proj\hw4\SW\riscv_mc_helloworld\Debug/../src/bsp/driver/uart/uart.c:320
				if (this_uart->rxReadLoc >= this_uart->rxBufferSize)
     452:	fcc42783          	lw	a5,-52(s0)
     456:	0457c703          	lbu	a4,69(a5)
     45a:	fcc42783          	lw	a5,-52(s0)
     45e:	01c7c783          	lbu	a5,28(a5)
     462:	00f76663          	bltu	a4,a5,46e <uart_getline+0xaa>
C:\Users\x-luo\proj\hw4\SW\riscv_mc_helloworld\Debug/../src/bsp/driver/uart/uart.c:321
					this_uart->rxReadLoc = 0;
     466:	fcc42783          	lw	a5,-52(s0)
     46a:	040782a3          	sb	zero,69(a5)
C:\Users\x-luo\proj\hw4\SW\riscv_mc_helloworld\Debug/../src/bsp/driver/uart/uart.c:323

				pic_int_disable(this_uart->intrLevel);
     46e:	fcc42783          	lw	a5,-52(s0)
     472:	00c7c783          	lbu	a5,12(a5)
     476:	853e                	mv	a0,a5
     478:	167000ef          	jal	ra,dde <pic_int_disable>
C:\Users\x-luo\proj\hw4\SW\riscv_mc_helloworld\Debug/../src/bsp/driver/uart/uart.c:324
				this_uart->rxDataBytes--;
     47c:	fcc42783          	lw	a5,-52(s0)
     480:	04d7c783          	lbu	a5,77(a5)
     484:	0ff7f793          	zext.b	a5,a5
     488:	17fd                	addi	a5,a5,-1
     48a:	0ff7f713          	zext.b	a4,a5
     48e:	fcc42783          	lw	a5,-52(s0)
     492:	04e786a3          	sb	a4,77(a5)
C:\Users\x-luo\proj\hw4\SW\riscv_mc_helloworld\Debug/../src/bsp/driver/uart/uart.c:325
				this_uart->ier |= UART_IER_RX_INT_MASK;
     496:	fcc42783          	lw	a5,-52(s0)
     49a:	0547c783          	lbu	a5,84(a5)
     49e:	0017e793          	ori	a5,a5,1
     4a2:	0ff7f713          	zext.b	a4,a5
     4a6:	fcc42783          	lw	a5,-52(s0)
     4aa:	04e78a23          	sb	a4,84(a5)
C:\Users\x-luo\proj\hw4\SW\riscv_mc_helloworld\Debug/../src/bsp/driver/uart/uart.c:326
				dev->ier = this_uart->ier;
     4ae:	fcc42783          	lw	a5,-52(s0)
     4b2:	0547c783          	lbu	a5,84(a5)
     4b6:	873e                	mv	a4,a5
     4b8:	fe442783          	lw	a5,-28(s0)
     4bc:	c3d8                	sw	a4,4(a5)
C:\Users\x-luo\proj\hw4\SW\riscv_mc_helloworld\Debug/../src/bsp/driver/uart/uart.c:327
				pic_int_enable(this_uart->intrLevel);
     4be:	fcc42783          	lw	a5,-52(s0)
     4c2:	00c7c783          	lbu	a5,12(a5)
     4c6:	853e                	mv	a0,a5
     4c8:	0e7000ef          	jal	ra,dae <pic_int_enable>
C:\Users\x-luo\proj\hw4\SW\riscv_mc_helloworld\Debug/../src/bsp/driver/uart/uart.c:329

				if (buf[i] == '\b') {  // Handle backspace
     4cc:	fe842783          	lw	a5,-24(s0)
     4d0:	fc842703          	lw	a4,-56(s0)
     4d4:	97ba                	add	a5,a5,a4
     4d6:	0007c703          	lbu	a4,0(a5)
     4da:	47a1                	li	a5,8
     4dc:	02f71863          	bne	a4,a5,50c <uart_getline+0x148>
C:\Users\x-luo\proj\hw4\SW\riscv_mc_helloworld\Debug/../src/bsp/driver/uart/uart.c:330
				    if (i > 0) {
     4e0:	fe842783          	lw	a5,-24(s0)
     4e4:	26f05d63          	blez	a5,75e <uart_getline+0x39a>
C:\Users\x-luo\proj\hw4\SW\riscv_mc_helloworld\Debug/../src/bsp/driver/uart/uart.c:331
				        buf[--i] = '\0';  // Remove last character from buffer
     4e8:	fe842783          	lw	a5,-24(s0)
     4ec:	17fd                	addi	a5,a5,-1
     4ee:	fef42423          	sw	a5,-24(s0)
     4f2:	fe842783          	lw	a5,-24(s0)
     4f6:	fc842703          	lw	a4,-56(s0)
     4fa:	97ba                	add	a5,a5,a4
     4fc:	00078023          	sb	zero,0(a5)
C:\Users\x-luo\proj\hw4\SW\riscv_mc_helloworld\Debug/../src/bsp/driver/uart/uart.c:332
				        printf("\b \b");      // Move cursor back, print space, move cursor back again
     500:	678d                	lui	a5,0x3
     502:	83478513          	addi	a0,a5,-1996 # 2834 <_etext>
     506:	53e010ef          	jal	ra,1a44 <printf>
     50a:	ac91                	j	75e <uart_getline+0x39a>
C:\Users\x-luo\proj\hw4\SW\riscv_mc_helloworld\Debug/../src/bsp/driver/uart/uart.c:335
				    }
				}else
				if (buf[i] == '\e') {  // Handle backspace
     50c:	fe842783          	lw	a5,-24(s0)
     510:	fc842703          	lw	a4,-56(s0)
     514:	97ba                	add	a5,a5,a4
     516:	0007c703          	lbu	a4,0(a5)
     51a:	47ed                	li	a5,27
     51c:	00f71b63          	bne	a4,a5,532 <uart_getline+0x16e>
C:\Users\x-luo\proj\hw4\SW\riscv_mc_helloworld\Debug/../src/bsp/driver/uart/uart.c:336
					escape = 1;
     520:	4785                	li	a5,1
     522:	fef42623          	sw	a5,-20(s0)
C:\Users\x-luo\proj\hw4\SW\riscv_mc_helloworld\Debug/../src/bsp/driver/uart/uart.c:337
					i++;
     526:	fe842783          	lw	a5,-24(s0)
     52a:	0785                	addi	a5,a5,1
     52c:	fef42423          	sw	a5,-24(s0)
     530:	a43d                	j	75e <uart_getline+0x39a>
C:\Users\x-luo\proj\hw4\SW\riscv_mc_helloworld\Debug/../src/bsp/driver/uart/uart.c:339
				}else
				if (buf[i] == '[' && escape == 1 ) {  // Handle backspace
     532:	fe842783          	lw	a5,-24(s0)
     536:	fc842703          	lw	a4,-56(s0)
     53a:	97ba                	add	a5,a5,a4
     53c:	0007c703          	lbu	a4,0(a5)
     540:	05b00793          	li	a5,91
     544:	02f71063          	bne	a4,a5,564 <uart_getline+0x1a0>
C:\Users\x-luo\proj\hw4\SW\riscv_mc_helloworld\Debug/../src/bsp/driver/uart/uart.c:339 (discriminator 1)
     548:	fec42703          	lw	a4,-20(s0)
     54c:	4785                	li	a5,1
     54e:	00f71b63          	bne	a4,a5,564 <uart_getline+0x1a0>
C:\Users\x-luo\proj\hw4\SW\riscv_mc_helloworld\Debug/../src/bsp/driver/uart/uart.c:340
					escape = 2;
     552:	4789                	li	a5,2
     554:	fef42623          	sw	a5,-20(s0)
C:\Users\x-luo\proj\hw4\SW\riscv_mc_helloworld\Debug/../src/bsp/driver/uart/uart.c:341
					i++;
     558:	fe842783          	lw	a5,-24(s0)
     55c:	0785                	addi	a5,a5,1
     55e:	fef42423          	sw	a5,-24(s0)
     562:	aaf5                	j	75e <uart_getline+0x39a>
C:\Users\x-luo\proj\hw4\SW\riscv_mc_helloworld\Debug/../src/bsp/driver/uart/uart.c:344
				}else

				if (buf[i] == 'A' && escape == 2) {  // Handle up arrow ( teraterm, send '\e','[' and 'A' )
     564:	fe842783          	lw	a5,-24(s0)
     568:	fc842703          	lw	a4,-56(s0)
     56c:	97ba                	add	a5,a5,a4
     56e:	0007c703          	lbu	a4,0(a5)
     572:	04100793          	li	a5,65
     576:	06f71e63          	bne	a4,a5,5f2 <uart_getline+0x22e>
C:\Users\x-luo\proj\hw4\SW\riscv_mc_helloworld\Debug/../src/bsp/driver/uart/uart.c:344 (discriminator 1)
     57a:	fec42703          	lw	a4,-20(s0)
     57e:	4789                	li	a5,2
     580:	06f71963          	bne	a4,a5,5f2 <uart_getline+0x22e>
C:\Users\x-luo\proj\hw4\SW\riscv_mc_helloworld\Debug/../src/bsp/driver/uart/uart.c:345
				    i -= 2; //remove ...
     584:	fe842783          	lw	a5,-24(s0)
     588:	17f9                	addi	a5,a5,-2
     58a:	fef42423          	sw	a5,-24(s0)
C:\Users\x-luo\proj\hw4\SW\riscv_mc_helloworld\Debug/../src/bsp/driver/uart/uart.c:346
				    const char* p = history_up();
     58e:	2e65                	jal	946 <history_up>
     590:	fea42023          	sw	a0,-32(s0)
C:\Users\x-luo\proj\hw4\SW\riscv_mc_helloworld\Debug/../src/bsp/driver/uart/uart.c:347
				    int cnt = 0;
     594:	fc042e23          	sw	zero,-36(s0)
C:\Users\x-luo\proj\hw4\SW\riscv_mc_helloworld\Debug/../src/bsp/driver/uart/uart.c:348
				    if( p != NULL ){
     598:	fe042783          	lw	a5,-32(s0)
     59c:	1a078e63          	beqz	a5,758 <uart_getline+0x394>
C:\Users\x-luo\proj\hw4\SW\riscv_mc_helloworld\Debug/../src/bsp/driver/uart/uart.c:349
				    	cnt = strlen(p) - 2; // remove the last 2 char('\r','\n')
     5a0:	fe042503          	lw	a0,-32(s0)
     5a4:	126020ef          	jal	ra,26ca <strlen>
     5a8:	87aa                	mv	a5,a0
     5aa:	17f9                	addi	a5,a5,-2
     5ac:	fcf42e23          	sw	a5,-36(s0)
C:\Users\x-luo\proj\hw4\SW\riscv_mc_helloworld\Debug/../src/bsp/driver/uart/uart.c:350
				    	strncpy( buf, p, cnt );
     5b0:	fdc42783          	lw	a5,-36(s0)
     5b4:	863e                	mv	a2,a5
     5b6:	fe042583          	lw	a1,-32(s0)
     5ba:	fc842503          	lw	a0,-56(s0)
     5be:	462010ef          	jal	ra,1a20 <strncpy>
C:\Users\x-luo\proj\hw4\SW\riscv_mc_helloworld\Debug/../src/bsp/driver/uart/uart.c:351
				    	buf[cnt] = '\0';
     5c2:	fdc42783          	lw	a5,-36(s0)
     5c6:	fc842703          	lw	a4,-56(s0)
     5ca:	97ba                	add	a5,a5,a4
     5cc:	00078023          	sb	zero,0(a5)
C:\Users\x-luo\proj\hw4\SW\riscv_mc_helloworld\Debug/../src/bsp/driver/uart/uart.c:354

				    	// clean terminal
				    	printf("\033[2K\r"); // putty terminal : clean line
     5d0:	678d                	lui	a5,0x3
     5d2:	83878513          	addi	a0,a5,-1992 # 2838 <_etext+0x4>
     5d6:	46e010ef          	jal	ra,1a44 <printf>
C:\Users\x-luo\proj\hw4\SW\riscv_mc_helloworld\Debug/../src/bsp/driver/uart/uart.c:355
				    	printf(">%s", buf);
     5da:	fc842583          	lw	a1,-56(s0)
     5de:	678d                	lui	a5,0x3
     5e0:	84078513          	addi	a0,a5,-1984 # 2840 <_etext+0xc>
     5e4:	460010ef          	jal	ra,1a44 <printf>
C:\Users\x-luo\proj\hw4\SW\riscv_mc_helloworld\Debug/../src/bsp/driver/uart/uart.c:356
			    		i = cnt;
     5e8:	fdc42783          	lw	a5,-36(s0)
     5ec:	fef42423          	sw	a5,-24(s0)
C:\Users\x-luo\proj\hw4\SW\riscv_mc_helloworld\Debug/../src/bsp/driver/uart/uart.c:344
				if (buf[i] == 'A' && escape == 2) {  // Handle up arrow ( teraterm, send '\e','[' and 'A' )
     5f0:	a2a5                	j	758 <uart_getline+0x394>
C:\Users\x-luo\proj\hw4\SW\riscv_mc_helloworld\Debug/../src/bsp/driver/uart/uart.c:359
				    }
				}else
				if (buf[i] == 'B'  && escape == 2 ) {  // Handle up arrow
     5f2:	fe842783          	lw	a5,-24(s0)
     5f6:	fc842703          	lw	a4,-56(s0)
     5fa:	97ba                	add	a5,a5,a4
     5fc:	0007c703          	lbu	a4,0(a5)
     600:	04200793          	li	a5,66
     604:	06f71963          	bne	a4,a5,676 <uart_getline+0x2b2>
C:\Users\x-luo\proj\hw4\SW\riscv_mc_helloworld\Debug/../src/bsp/driver/uart/uart.c:359 (discriminator 1)
     608:	fec42703          	lw	a4,-20(s0)
     60c:	4789                	li	a5,2
     60e:	06f71463          	bne	a4,a5,676 <uart_getline+0x2b2>
C:\Users\x-luo\proj\hw4\SW\riscv_mc_helloworld\Debug/../src/bsp/driver/uart/uart.c:360
					const char* p = history_down();
     612:	266d                	jal	9bc <history_down>
     614:	fca42c23          	sw	a0,-40(s0)
C:\Users\x-luo\proj\hw4\SW\riscv_mc_helloworld\Debug/../src/bsp/driver/uart/uart.c:361
					int cnt = 0;
     618:	fc042a23          	sw	zero,-44(s0)
C:\Users\x-luo\proj\hw4\SW\riscv_mc_helloworld\Debug/../src/bsp/driver/uart/uart.c:362
			    	if( p != NULL ){
     61c:	fd842783          	lw	a5,-40(s0)
     620:	12078e63          	beqz	a5,75c <uart_getline+0x398>
C:\Users\x-luo\proj\hw4\SW\riscv_mc_helloworld\Debug/../src/bsp/driver/uart/uart.c:363
			    		cnt = strlen(p) - 2; // remove the last 2 char('\r','\n')
     624:	fd842503          	lw	a0,-40(s0)
     628:	0a2020ef          	jal	ra,26ca <strlen>
     62c:	87aa                	mv	a5,a0
     62e:	17f9                	addi	a5,a5,-2
     630:	fcf42a23          	sw	a5,-44(s0)
C:\Users\x-luo\proj\hw4\SW\riscv_mc_helloworld\Debug/../src/bsp/driver/uart/uart.c:364
			    		strncpy( buf, p, cnt );
     634:	fd442783          	lw	a5,-44(s0)
     638:	863e                	mv	a2,a5
     63a:	fd842583          	lw	a1,-40(s0)
     63e:	fc842503          	lw	a0,-56(s0)
     642:	3de010ef          	jal	ra,1a20 <strncpy>
C:\Users\x-luo\proj\hw4\SW\riscv_mc_helloworld\Debug/../src/bsp/driver/uart/uart.c:365
			    		buf[cnt] = '\0';
     646:	fd442783          	lw	a5,-44(s0)
     64a:	fc842703          	lw	a4,-56(s0)
     64e:	97ba                	add	a5,a5,a4
     650:	00078023          	sb	zero,0(a5)
C:\Users\x-luo\proj\hw4\SW\riscv_mc_helloworld\Debug/../src/bsp/driver/uart/uart.c:367
				    	// clean terminal
				    	printf("\033[2K\r"); // putty terminal : clean line
     654:	678d                	lui	a5,0x3
     656:	83878513          	addi	a0,a5,-1992 # 2838 <_etext+0x4>
     65a:	3ea010ef          	jal	ra,1a44 <printf>
C:\Users\x-luo\proj\hw4\SW\riscv_mc_helloworld\Debug/../src/bsp/driver/uart/uart.c:368
				    	printf(">%s", buf);  // show history input
     65e:	fc842583          	lw	a1,-56(s0)
     662:	678d                	lui	a5,0x3
     664:	84078513          	addi	a0,a5,-1984 # 2840 <_etext+0xc>
     668:	3dc010ef          	jal	ra,1a44 <printf>
C:\Users\x-luo\proj\hw4\SW\riscv_mc_helloworld\Debug/../src/bsp/driver/uart/uart.c:370

				    	i = cnt;
     66c:	fd442783          	lw	a5,-44(s0)
     670:	fef42423          	sw	a5,-24(s0)
C:\Users\x-luo\proj\hw4\SW\riscv_mc_helloworld\Debug/../src/bsp/driver/uart/uart.c:359
				if (buf[i] == 'B'  && escape == 2 ) {  // Handle up arrow
     674:	a0e5                	j	75c <uart_getline+0x398>
C:\Users\x-luo\proj\hw4\SW\riscv_mc_helloworld\Debug/../src/bsp/driver/uart/uart.c:373
					}
				}else
				if( buf[i] == '\r' ){
     676:	fe842783          	lw	a5,-24(s0)
     67a:	fc842703          	lw	a4,-56(s0)
     67e:	97ba                	add	a5,a5,a4
     680:	0007c703          	lbu	a4,0(a5)
     684:	47b5                	li	a5,13
     686:	04f71063          	bne	a4,a5,6c6 <uart_getline+0x302>
C:\Users\x-luo\proj\hw4\SW\riscv_mc_helloworld\Debug/../src/bsp/driver/uart/uart.c:374
					buf[++i] = '\n';
     68a:	fe842783          	lw	a5,-24(s0)
     68e:	0785                	addi	a5,a5,1
     690:	fef42423          	sw	a5,-24(s0)
     694:	fe842783          	lw	a5,-24(s0)
     698:	fc842703          	lw	a4,-56(s0)
     69c:	97ba                	add	a5,a5,a4
     69e:	4729                	li	a4,10
     6a0:	00e78023          	sb	a4,0(a5)
C:\Users\x-luo\proj\hw4\SW\riscv_mc_helloworld\Debug/../src/bsp/driver/uart/uart.c:375
					buf[++i] = '\0';
     6a4:	fe842783          	lw	a5,-24(s0)
     6a8:	0785                	addi	a5,a5,1
     6aa:	fef42423          	sw	a5,-24(s0)
     6ae:	fe842783          	lw	a5,-24(s0)
     6b2:	fc842703          	lw	a4,-56(s0)
     6b6:	97ba                	add	a5,a5,a4
     6b8:	00078023          	sb	zero,0(a5)
C:\Users\x-luo\proj\hw4\SW\riscv_mc_helloworld\Debug/../src/bsp/driver/uart/uart.c:376
					add_to_history( buf );
     6bc:	fc842503          	lw	a0,-56(s0)
     6c0:	2ae5                	jal	8b8 <add_to_history>
C:\Users\x-luo\proj\hw4\SW\riscv_mc_helloworld\Debug/../src/bsp/driver/uart/uart.c:377
					return 0;
     6c2:	4781                	li	a5,0
     6c4:	a06d                	j	76e <uart_getline+0x3aa>
C:\Users\x-luo\proj\hw4\SW\riscv_mc_helloworld\Debug/../src/bsp/driver/uart/uart.c:380
				}
				else{
					uart_putc(&uart_core_uart, buf[i]);
     6c6:	fe842783          	lw	a5,-24(s0)
     6ca:	fc842703          	lw	a4,-56(s0)
     6ce:	97ba                	add	a5,a5,a4
     6d0:	0007c783          	lbu	a5,0(a5)
     6d4:	85be                	mv	a1,a5
     6d6:	a4418513          	addi	a0,gp,-1468 # 2fb8 <uart_core_uart>
     6da:	2879                	jal	778 <uart_putc>
C:\Users\x-luo\proj\hw4\SW\riscv_mc_helloworld\Debug/../src/bsp/driver/uart/uart.c:381
					i++;
     6dc:	fe842783          	lw	a5,-24(s0)
     6e0:	0785                	addi	a5,a5,1
     6e2:	fef42423          	sw	a5,-24(s0)
     6e6:	a8a5                	j	75e <uart_getline+0x39a>
C:\Users\x-luo\proj\hw4\SW\riscv_mc_helloworld\Debug/../src/bsp/driver/uart/uart.c:390
			}
		} else
#endif
		{
			/* not using interrupts */
			uiValue = dev->lsr;
     6e8:	fe442783          	lw	a5,-28(s0)
     6ec:	4bdc                	lw	a5,20(a5)
     6ee:	0ff7f793          	zext.b	a5,a5
     6f2:	fcf409a3          	sb	a5,-45(s0)
C:\Users\x-luo\proj\hw4\SW\riscv_mc_helloworld\Debug/../src/bsp/driver/uart/uart.c:391
			if (uiValue & UART_LSR_RX_RDY_MASK) {
     6f6:	fd344783          	lbu	a5,-45(s0)
     6fa:	0ff7f793          	zext.b	a5,a5
     6fe:	8b85                	andi	a5,a5,1
     700:	cfb9                	beqz	a5,75e <uart_getline+0x39a>
C:\Users\x-luo\proj\hw4\SW\riscv_mc_helloworld\Debug/../src/bsp/driver/uart/uart.c:392
				buf[i] = dev->rxtx;
     702:	fe442783          	lw	a5,-28(s0)
     706:	4394                	lw	a3,0(a5)
     708:	fe842783          	lw	a5,-24(s0)
     70c:	fc842703          	lw	a4,-56(s0)
     710:	97ba                	add	a5,a5,a4
     712:	0ff6f713          	zext.b	a4,a3
     716:	00e78023          	sb	a4,0(a5)
C:\Users\x-luo\proj\hw4\SW\riscv_mc_helloworld\Debug/../src/bsp/driver/uart/uart.c:393
				if( buf[i] == '\r' ){
     71a:	fe842783          	lw	a5,-24(s0)
     71e:	fc842703          	lw	a4,-56(s0)
     722:	97ba                	add	a5,a5,a4
     724:	0007c703          	lbu	a4,0(a5)
     728:	47b5                	li	a5,13
     72a:	02f71163          	bne	a4,a5,74c <uart_getline+0x388>
C:\Users\x-luo\proj\hw4\SW\riscv_mc_helloworld\Debug/../src/bsp/driver/uart/uart.c:394
					buf[++i] = '\n';
     72e:	fe842783          	lw	a5,-24(s0)
     732:	0785                	addi	a5,a5,1
     734:	fef42423          	sw	a5,-24(s0)
     738:	fe842783          	lw	a5,-24(s0)
     73c:	fc842703          	lw	a4,-56(s0)
     740:	97ba                	add	a5,a5,a4
     742:	4729                	li	a4,10
     744:	00e78023          	sb	a4,0(a5)
C:\Users\x-luo\proj\hw4\SW\riscv_mc_helloworld\Debug/../src/bsp/driver/uart/uart.c:395
					return 0;
     748:	4781                	li	a5,0
     74a:	a015                	j	76e <uart_getline+0x3aa>
C:\Users\x-luo\proj\hw4\SW\riscv_mc_helloworld\Debug/../src/bsp/driver/uart/uart.c:398
				}
				else
					i++;
     74c:	fe842783          	lw	a5,-24(s0)
     750:	0785                	addi	a5,a5,1
     752:	fef42423          	sw	a5,-24(s0)
     756:	a021                	j	75e <uart_getline+0x39a>
C:\Users\x-luo\proj\hw4\SW\riscv_mc_helloworld\Debug/../src/bsp/driver/uart/uart.c:344
				if (buf[i] == 'A' && escape == 2) {  // Handle up arrow ( teraterm, send '\e','[' and 'A' )
     758:	0001                	nop
     75a:	a011                	j	75e <uart_getline+0x39a>
C:\Users\x-luo\proj\hw4\SW\riscv_mc_helloworld\Debug/../src/bsp/driver/uart/uart.c:359
				if (buf[i] == 'B'  && escape == 2 ) {  // Handle up arrow
     75c:	0001                	nop
C:\Users\x-luo\proj\hw4\SW\riscv_mc_helloworld\Debug/../src/bsp/driver/uart/uart.c:406

		/* if rx is non-blocking, return immediately */
		/*if (this_uart->blockingRx == 0)
			return (UART_ERR_WOULD_BLOCK);
*/
	}while( i < buf_size - 2 );
     75e:	fc442783          	lw	a5,-60(s0)
     762:	17f9                	addi	a5,a5,-2
     764:	fe842703          	lw	a4,-24(s0)
     768:	c8f74be3          	blt	a4,a5,3fe <uart_getline+0x3a>
C:\Users\x-luo\proj\hw4\SW\riscv_mc_helloworld\Debug/../src/bsp/driver/uart/uart.c:409

	/* buf is full */
	return (-1);
     76c:	57fd                	li	a5,-1
C:\Users\x-luo\proj\hw4\SW\riscv_mc_helloworld\Debug/../src/bsp/driver/uart/uart.c:410
}
     76e:	853e                	mv	a0,a5
     770:	50f2                	lw	ra,60(sp)
     772:	5462                	lw	s0,56(sp)
     774:	6121                	addi	sp,sp,64
     776:	8082                	ret

00000778 <uart_putc>:
uart_putc():
C:\Users\x-luo\proj\hw4\SW\riscv_mc_helloworld\Debug/../src/bsp/driver/uart/uart.c:421
 * Returns 0 if no error
 ***************************************************************
*/
unsigned char uart_putc(struct uart_instance *this_uart,
			unsigned char ucChar)
{
     778:	7179                	addi	sp,sp,-48
     77a:	d606                	sw	ra,44(sp)
     77c:	d422                	sw	s0,40(sp)
     77e:	1800                	addi	s0,sp,48
     780:	fca42e23          	sw	a0,-36(s0)
     784:	87ae                	mv	a5,a1
     786:	fcf40da3          	sb	a5,-37(s0)
C:\Users\x-luo\proj\hw4\SW\riscv_mc_helloworld\Debug/../src/bsp/driver/uart/uart.c:424
	volatile unsigned char uiValue;
	volatile struct uart_dev *dev;
	if (NULL == this_uart) {
     78a:	fdc42783          	lw	a5,-36(s0)
     78e:	e399                	bnez	a5,794 <uart_putc+0x1c>
C:\Users\x-luo\proj\hw4\SW\riscv_mc_helloworld\Debug/../src/bsp/driver/uart/uart.c:425
		return 1;
     790:	4785                	li	a5,1
     792:	aa31                	j	8ae <uart_putc+0x136>
C:\Users\x-luo\proj\hw4\SW\riscv_mc_helloworld\Debug/../src/bsp/driver/uart/uart.c:427
	}
	dev = (volatile struct uart_dev *) (this_uart->base);
     794:	fdc42783          	lw	a5,-36(s0)
     798:	43dc                	lw	a5,4(a5)
     79a:	fef42623          	sw	a5,-20(s0)
C:\Users\x-luo\proj\hw4\SW\riscv_mc_helloworld\Debug/../src/bsp/driver/uart/uart.c:430

#if _UART_ENABLE_INTERRUPTS_
	if (this_uart->intrAvail) {
     79e:	fdc42783          	lw	a5,-36(s0)
     7a2:	00d7c783          	lbu	a5,13(a5)
     7a6:	cbe9                	beqz	a5,878 <uart_putc+0x100>
C:\Users\x-luo\proj\hw4\SW\riscv_mc_helloworld\Debug/../src/bsp/driver/uart/uart.c:432
		/* if tx-buffer's full, wait for it to get empty */
		while (this_uart->txDataBytes == this_uart->txBufferSize) {
     7a8:	a801                	j	7b8 <uart_putc+0x40>
C:\Users\x-luo\proj\hw4\SW\riscv_mc_helloworld\Debug/../src/bsp/driver/uart/uart.c:435

			/* if non-blocking tx, return immediately */
			if (this_uart->blockingTx == 0)
     7aa:	fdc42783          	lw	a5,-36(s0)
     7ae:	01e7c783          	lbu	a5,30(a5)
     7b2:	e399                	bnez	a5,7b8 <uart_putc+0x40>
C:\Users\x-luo\proj\hw4\SW\riscv_mc_helloworld\Debug/../src/bsp/driver/uart/uart.c:436
				return (UART_ERR_WOULD_BLOCK);
     7b4:	4785                	li	a5,1
     7b6:	a8e5                	j	8ae <uart_putc+0x136>
C:\Users\x-luo\proj\hw4\SW\riscv_mc_helloworld\Debug/../src/bsp/driver/uart/uart.c:432
		while (this_uart->txDataBytes == this_uart->txBufferSize) {
     7b8:	fdc42783          	lw	a5,-36(s0)
     7bc:	04c7c783          	lbu	a5,76(a5)
     7c0:	0ff7f713          	zext.b	a4,a5
     7c4:	fdc42783          	lw	a5,-36(s0)
     7c8:	01d7c783          	lbu	a5,29(a5)
     7cc:	fcf70fe3          	beq	a4,a5,7aa <uart_putc+0x32>
C:\Users\x-luo\proj\hw4\SW\riscv_mc_helloworld\Debug/../src/bsp/driver/uart/uart.c:440
		}

		/* stuff data into the write-buffer */
		this_uart->txBuffer[this_uart->txWriteLoc] = ucChar;
     7d0:	fdc42783          	lw	a5,-36(s0)
     7d4:	0467c783          	lbu	a5,70(a5)
     7d8:	873e                	mv	a4,a5
     7da:	fdc42783          	lw	a5,-36(s0)
     7de:	97ba                	add	a5,a5,a4
     7e0:	fdb44703          	lbu	a4,-37(s0)
     7e4:	02e78a23          	sb	a4,52(a5)
C:\Users\x-luo\proj\hw4\SW\riscv_mc_helloworld\Debug/../src/bsp/driver/uart/uart.c:441
		this_uart->txWriteLoc++;
     7e8:	fdc42783          	lw	a5,-36(s0)
     7ec:	0467c783          	lbu	a5,70(a5)
     7f0:	0785                	addi	a5,a5,1
     7f2:	0ff7f713          	zext.b	a4,a5
     7f6:	fdc42783          	lw	a5,-36(s0)
     7fa:	04e78323          	sb	a4,70(a5)
C:\Users\x-luo\proj\hw4\SW\riscv_mc_helloworld\Debug/../src/bsp/driver/uart/uart.c:442
		if (this_uart->txWriteLoc >= this_uart->txBufferSize)
     7fe:	fdc42783          	lw	a5,-36(s0)
     802:	0467c703          	lbu	a4,70(a5)
     806:	fdc42783          	lw	a5,-36(s0)
     80a:	01d7c783          	lbu	a5,29(a5)
     80e:	00f76663          	bltu	a4,a5,81a <uart_putc+0xa2>
C:\Users\x-luo\proj\hw4\SW\riscv_mc_helloworld\Debug/../src/bsp/driver/uart/uart.c:443
			this_uart->txWriteLoc = 0;
     812:	fdc42783          	lw	a5,-36(s0)
     816:	04078323          	sb	zero,70(a5)
C:\Users\x-luo\proj\hw4\SW\riscv_mc_helloworld\Debug/../src/bsp/driver/uart/uart.c:446

		/* increment tx-databytes and enable transmit interrupt */
		pic_int_disable(this_uart->intrLevel);
     81a:	fdc42783          	lw	a5,-36(s0)
     81e:	00c7c783          	lbu	a5,12(a5)
     822:	853e                	mv	a0,a5
     824:	2b6d                	jal	dde <pic_int_disable>
C:\Users\x-luo\proj\hw4\SW\riscv_mc_helloworld\Debug/../src/bsp/driver/uart/uart.c:447
		this_uart->txDataBytes++;
     826:	fdc42783          	lw	a5,-36(s0)
     82a:	04c7c783          	lbu	a5,76(a5)
     82e:	0ff7f793          	zext.b	a5,a5
     832:	0785                	addi	a5,a5,1
     834:	0ff7f713          	zext.b	a4,a5
     838:	fdc42783          	lw	a5,-36(s0)
     83c:	04e78623          	sb	a4,76(a5)
C:\Users\x-luo\proj\hw4\SW\riscv_mc_helloworld\Debug/../src/bsp/driver/uart/uart.c:448
		this_uart->ier |= UART_IER_TX_INT_MASK;
     840:	fdc42783          	lw	a5,-36(s0)
     844:	0547c783          	lbu	a5,84(a5)
     848:	0027e793          	ori	a5,a5,2
     84c:	0ff7f713          	zext.b	a4,a5
     850:	fdc42783          	lw	a5,-36(s0)
     854:	04e78a23          	sb	a4,84(a5)
C:\Users\x-luo\proj\hw4\SW\riscv_mc_helloworld\Debug/../src/bsp/driver/uart/uart.c:449
		dev->ier = this_uart->ier;
     858:	fdc42783          	lw	a5,-36(s0)
     85c:	0547c783          	lbu	a5,84(a5)
     860:	873e                	mv	a4,a5
     862:	fec42783          	lw	a5,-20(s0)
     866:	c3d8                	sw	a4,4(a5)
C:\Users\x-luo\proj\hw4\SW\riscv_mc_helloworld\Debug/../src/bsp/driver/uart/uart.c:450
		pic_int_enable(this_uart->intrLevel);
     868:	fdc42783          	lw	a5,-36(s0)
     86c:	00c7c783          	lbu	a5,12(a5)
     870:	853e                	mv	a0,a5
     872:	2b35                	jal	dae <pic_int_enable>
C:\Users\x-luo\proj\hw4\SW\riscv_mc_helloworld\Debug/../src/bsp/driver/uart/uart.c:453

		/* all done */
		return (0);
     874:	4781                	li	a5,0
     876:	a825                	j	8ae <uart_putc+0x136>
C:\Users\x-luo\proj\hw4\SW\riscv_mc_helloworld\Debug/../src/bsp/driver/uart/uart.c:459
	} else
#endif
	{
		do {
			/* if uart's ready to accept character, send immediately */
			uiValue = dev->lsr;
     878:	fec42783          	lw	a5,-20(s0)
     87c:	4bdc                	lw	a5,20(a5)
     87e:	0ff7f793          	zext.b	a5,a5
     882:	fef405a3          	sb	a5,-21(s0)
C:\Users\x-luo\proj\hw4\SW\riscv_mc_helloworld\Debug/../src/bsp/driver/uart/uart.c:460
			if (uiValue & UART_LSR_TX_RDY_MASK) {
     886:	feb44783          	lbu	a5,-21(s0)
     88a:	0ff7f793          	zext.b	a5,a5
     88e:	0207f793          	andi	a5,a5,32
     892:	cb81                	beqz	a5,8a2 <uart_putc+0x12a>
C:\Users\x-luo\proj\hw4\SW\riscv_mc_helloworld\Debug/../src/bsp/driver/uart/uart.c:461
				dev->rxtx = ucChar;
     894:	fdb44703          	lbu	a4,-37(s0)
     898:	fec42783          	lw	a5,-20(s0)
     89c:	c398                	sw	a4,0(a5)
C:\Users\x-luo\proj\hw4\SW\riscv_mc_helloworld\Debug/../src/bsp/driver/uart/uart.c:462
				return (0);
     89e:	4781                	li	a5,0
     8a0:	a039                	j	8ae <uart_putc+0x136>
C:\Users\x-luo\proj\hw4\SW\riscv_mc_helloworld\Debug/../src/bsp/driver/uart/uart.c:466
			}

			/* if non-blocking tx, return immediately */
			if (this_uart->blockingTx == 0)
     8a2:	fdc42783          	lw	a5,-36(s0)
     8a6:	01e7c783          	lbu	a5,30(a5)
     8aa:	f7f9                	bnez	a5,878 <uart_putc+0x100>
C:\Users\x-luo\proj\hw4\SW\riscv_mc_helloworld\Debug/../src/bsp/driver/uart/uart.c:467
				return (UART_ERR_WOULD_BLOCK);
     8ac:	4785                	li	a5,1
C:\Users\x-luo\proj\hw4\SW\riscv_mc_helloworld\Debug/../src/bsp/driver/uart/uart.c:474
		} while (1);
	}

	/* all done */
	return 0;
}
     8ae:	853e                	mv	a0,a5
     8b0:	50b2                	lw	ra,44(sp)
     8b2:	5422                	lw	s0,40(sp)
     8b4:	6145                	addi	sp,sp,48
     8b6:	8082                	ret

000008b8 <add_to_history>:
add_to_history():
C:\Users\x-luo\proj\hw4\SW\riscv_mc_helloworld\Debug/../src/bsp/driver/uart/uart.c:610
unsigned int input_index = 0;  // Index for the next input in history
unsigned int navigate_index = 0;  // Index for navigating through history
unsigned int navigate_count = 0;
unsigned int history_total_count = 0;  // Total number of inputs stored

void add_to_history(const char *input) {
     8b8:	7179                	addi	sp,sp,-48
     8ba:	d606                	sw	ra,44(sp)
     8bc:	d422                	sw	s0,40(sp)
     8be:	1800                	addi	s0,sp,48
     8c0:	fca42e23          	sw	a0,-36(s0)
C:\Users\x-luo\proj\hw4\SW\riscv_mc_helloworld\Debug/../src/bsp/driver/uart/uart.c:611
    int i = input_index % HISTORY_SIZE;
     8c4:	678d                	lui	a5,0x3
     8c6:	d787a783          	lw	a5,-648(a5) # 2d78 <input_index>
     8ca:	8b8d                	andi	a5,a5,3
     8cc:	fef42623          	sw	a5,-20(s0)
C:\Users\x-luo\proj\hw4\SW\riscv_mc_helloworld\Debug/../src/bsp/driver/uart/uart.c:612
    strncpy(history[i], input, MAX_CMD_LEN - 1);
     8d0:	fec42783          	lw	a5,-20(s0)
     8d4:	00579713          	slli	a4,a5,0x5
     8d8:	678d                	lui	a5,0x3
     8da:	da078793          	addi	a5,a5,-608 # 2da0 <history>
     8de:	97ba                	add	a5,a5,a4
     8e0:	467d                	li	a2,31
     8e2:	fdc42583          	lw	a1,-36(s0)
     8e6:	853e                	mv	a0,a5
     8e8:	138010ef          	jal	ra,1a20 <strncpy>
C:\Users\x-luo\proj\hw4\SW\riscv_mc_helloworld\Debug/../src/bsp/driver/uart/uart.c:613
    history[i][MAX_CMD_LEN - 1] = '\0';
     8ec:	678d                	lui	a5,0x3
     8ee:	da078713          	addi	a4,a5,-608 # 2da0 <history>
     8f2:	fec42783          	lw	a5,-20(s0)
     8f6:	0796                	slli	a5,a5,0x5
     8f8:	97ba                	add	a5,a5,a4
     8fa:	00078fa3          	sb	zero,31(a5)
C:\Users\x-luo\proj\hw4\SW\riscv_mc_helloworld\Debug/../src/bsp/driver/uart/uart.c:614
    input_index++;
     8fe:	678d                	lui	a5,0x3
     900:	d787a783          	lw	a5,-648(a5) # 2d78 <input_index>
     904:	00178713          	addi	a4,a5,1
     908:	678d                	lui	a5,0x3
     90a:	d6e7ac23          	sw	a4,-648(a5) # 2d78 <input_index>
C:\Users\x-luo\proj\hw4\SW\riscv_mc_helloworld\Debug/../src/bsp/driver/uart/uart.c:615
    if (history_total_count < HISTORY_SIZE) {
     90e:	678d                	lui	a5,0x3
     910:	d847a703          	lw	a4,-636(a5) # 2d84 <history_total_count>
     914:	478d                	li	a5,3
     916:	00e7ea63          	bltu	a5,a4,92a <add_to_history+0x72>
C:\Users\x-luo\proj\hw4\SW\riscv_mc_helloworld\Debug/../src/bsp/driver/uart/uart.c:616
        history_total_count++;
     91a:	678d                	lui	a5,0x3
     91c:	d847a783          	lw	a5,-636(a5) # 2d84 <history_total_count>
     920:	00178713          	addi	a4,a5,1
     924:	678d                	lui	a5,0x3
     926:	d8e7a223          	sw	a4,-636(a5) # 2d84 <history_total_count>
C:\Users\x-luo\proj\hw4\SW\riscv_mc_helloworld\Debug/../src/bsp/driver/uart/uart.c:618
    }
    navigate_index = input_index;  // Reset navigate index to the top of history
     92a:	678d                	lui	a5,0x3
     92c:	d787a703          	lw	a4,-648(a5) # 2d78 <input_index>
     930:	678d                	lui	a5,0x3
     932:	d6e7ae23          	sw	a4,-644(a5) # 2d7c <navigate_index>
C:\Users\x-luo\proj\hw4\SW\riscv_mc_helloworld\Debug/../src/bsp/driver/uart/uart.c:619
    navigate_count = 0;			   // Reset navigate count to 0
     936:	678d                	lui	a5,0x3
     938:	d807a023          	sw	zero,-640(a5) # 2d80 <navigate_count>
C:\Users\x-luo\proj\hw4\SW\riscv_mc_helloworld\Debug/../src/bsp/driver/uart/uart.c:620
}
     93c:	0001                	nop
     93e:	50b2                	lw	ra,44(sp)
     940:	5422                	lw	s0,40(sp)
     942:	6145                	addi	sp,sp,48
     944:	8082                	ret

00000946 <history_up>:
history_up():
C:\Users\x-luo\proj\hw4\SW\riscv_mc_helloworld\Debug/../src/bsp/driver/uart/uart.c:627
void display_navigated_command() {
        printf( "%s", history[navigate_index % HISTORY_SIZE]);
        int cnt = strlen(history[navigate_index % HISTORY_SIZE]);
}

const char* history_up() {
     946:	1141                	addi	sp,sp,-16
     948:	c606                	sw	ra,12(sp)
     94a:	c422                	sw	s0,8(sp)
     94c:	0800                	addi	s0,sp,16
C:\Users\x-luo\proj\hw4\SW\riscv_mc_helloworld\Debug/../src/bsp/driver/uart/uart.c:628
    if (history_total_count && navigate_count < history_total_count ) {
     94e:	678d                	lui	a5,0x3
     950:	d847a783          	lw	a5,-636(a5) # 2d84 <history_total_count>
     954:	c7a1                	beqz	a5,99c <history_up+0x56>
C:\Users\x-luo\proj\hw4\SW\riscv_mc_helloworld\Debug/../src/bsp/driver/uart/uart.c:628 (discriminator 1)
     956:	678d                	lui	a5,0x3
     958:	d807a703          	lw	a4,-640(a5) # 2d80 <navigate_count>
     95c:	678d                	lui	a5,0x3
     95e:	d847a783          	lw	a5,-636(a5) # 2d84 <history_total_count>
     962:	02f77d63          	bgeu	a4,a5,99c <history_up+0x56>
C:\Users\x-luo\proj\hw4\SW\riscv_mc_helloworld\Debug/../src/bsp/driver/uart/uart.c:629
        navigate_index--;
     966:	678d                	lui	a5,0x3
     968:	d7c7a783          	lw	a5,-644(a5) # 2d7c <navigate_index>
     96c:	fff78713          	addi	a4,a5,-1
     970:	678d                	lui	a5,0x3
     972:	d6e7ae23          	sw	a4,-644(a5) # 2d7c <navigate_index>
C:\Users\x-luo\proj\hw4\SW\riscv_mc_helloworld\Debug/../src/bsp/driver/uart/uart.c:630
        navigate_count++;
     976:	678d                	lui	a5,0x3
     978:	d807a783          	lw	a5,-640(a5) # 2d80 <navigate_count>
     97c:	00178713          	addi	a4,a5,1
     980:	678d                	lui	a5,0x3
     982:	d8e7a023          	sw	a4,-640(a5) # 2d80 <navigate_count>
C:\Users\x-luo\proj\hw4\SW\riscv_mc_helloworld\Debug/../src/bsp/driver/uart/uart.c:631
        return history[navigate_index % HISTORY_SIZE];
     986:	678d                	lui	a5,0x3
     988:	d7c7a783          	lw	a5,-644(a5) # 2d7c <navigate_index>
     98c:	8b8d                	andi	a5,a5,3
     98e:	00579713          	slli	a4,a5,0x5
     992:	678d                	lui	a5,0x3
     994:	da078793          	addi	a5,a5,-608 # 2da0 <history>
     998:	97ba                	add	a5,a5,a4
     99a:	a821                	j	9b2 <history_up+0x6c>
C:\Users\x-luo\proj\hw4\SW\riscv_mc_helloworld\Debug/../src/bsp/driver/uart/uart.c:633
    } else {
    	printf("\033[2K\r");
     99c:	678d                	lui	a5,0x3
     99e:	83878513          	addi	a0,a5,-1992 # 2838 <_etext+0x4>
     9a2:	0a2010ef          	jal	ra,1a44 <printf>
C:\Users\x-luo\proj\hw4\SW\riscv_mc_helloworld\Debug/../src/bsp/driver/uart/uart.c:634
        printf("No more history above.\n>");
     9a6:	678d                	lui	a5,0x3
     9a8:	84878513          	addi	a0,a5,-1976 # 2848 <_etext+0x14>
     9ac:	098010ef          	jal	ra,1a44 <printf>
C:\Users\x-luo\proj\hw4\SW\riscv_mc_helloworld\Debug/../src/bsp/driver/uart/uart.c:635
        return NULL;
     9b0:	4781                	li	a5,0
C:\Users\x-luo\proj\hw4\SW\riscv_mc_helloworld\Debug/../src/bsp/driver/uart/uart.c:637
    }
}
     9b2:	853e                	mv	a0,a5
     9b4:	40b2                	lw	ra,12(sp)
     9b6:	4422                	lw	s0,8(sp)
     9b8:	0141                	addi	sp,sp,16
     9ba:	8082                	ret

000009bc <history_down>:
history_down():
C:\Users\x-luo\proj\hw4\SW\riscv_mc_helloworld\Debug/../src/bsp/driver/uart/uart.c:639

const char*history_down() {
     9bc:	1141                	addi	sp,sp,-16
     9be:	c606                	sw	ra,12(sp)
     9c0:	c422                	sw	s0,8(sp)
     9c2:	0800                	addi	s0,sp,16
C:\Users\x-luo\proj\hw4\SW\riscv_mc_helloworld\Debug/../src/bsp/driver/uart/uart.c:640
    if (navigate_index < input_index) {
     9c4:	678d                	lui	a5,0x3
     9c6:	d7c7a703          	lw	a4,-644(a5) # 2d7c <navigate_index>
     9ca:	678d                	lui	a5,0x3
     9cc:	d787a783          	lw	a5,-648(a5) # 2d78 <input_index>
     9d0:	02f77d63          	bgeu	a4,a5,a0a <_STACK_SIZE+0xa>
C:\Users\x-luo\proj\hw4\SW\riscv_mc_helloworld\Debug/../src/bsp/driver/uart/uart.c:641
        navigate_index++;
     9d4:	678d                	lui	a5,0x3
     9d6:	d7c7a783          	lw	a5,-644(a5) # 2d7c <navigate_index>
     9da:	00178713          	addi	a4,a5,1
     9de:	678d                	lui	a5,0x3
     9e0:	d6e7ae23          	sw	a4,-644(a5) # 2d7c <navigate_index>
C:\Users\x-luo\proj\hw4\SW\riscv_mc_helloworld\Debug/../src/bsp/driver/uart/uart.c:642
        navigate_count--;
     9e4:	678d                	lui	a5,0x3
     9e6:	d807a783          	lw	a5,-640(a5) # 2d80 <navigate_count>
     9ea:	fff78713          	addi	a4,a5,-1
     9ee:	678d                	lui	a5,0x3
     9f0:	d8e7a023          	sw	a4,-640(a5) # 2d80 <navigate_count>
C:\Users\x-luo\proj\hw4\SW\riscv_mc_helloworld\Debug/../src/bsp/driver/uart/uart.c:643
        return history[navigate_index % HISTORY_SIZE];
     9f4:	678d                	lui	a5,0x3
     9f6:	d7c7a783          	lw	a5,-644(a5) # 2d7c <navigate_index>
     9fa:	8b8d                	andi	a5,a5,3
     9fc:	00579713          	slli	a4,a5,0x5
     a00:	678d                	lui	a5,0x3
     a02:	da078793          	addi	a5,a5,-608 # 2da0 <history>
     a06:	97ba                	add	a5,a5,a4
     a08:	a821                	j	a20 <_STACK_SIZE+0x20>
C:\Users\x-luo\proj\hw4\SW\riscv_mc_helloworld\Debug/../src/bsp/driver/uart/uart.c:645
    } else {
    	printf("\033[2K\r");
     a0a:	678d                	lui	a5,0x3
     a0c:	83878513          	addi	a0,a5,-1992 # 2838 <_etext+0x4>
     a10:	034010ef          	jal	ra,1a44 <printf>
C:\Users\x-luo\proj\hw4\SW\riscv_mc_helloworld\Debug/../src/bsp/driver/uart/uart.c:646
        printf("No more history below.\n>");
     a14:	678d                	lui	a5,0x3
     a16:	86478513          	addi	a0,a5,-1948 # 2864 <_etext+0x30>
     a1a:	02a010ef          	jal	ra,1a44 <printf>
C:\Users\x-luo\proj\hw4\SW\riscv_mc_helloworld\Debug/../src/bsp/driver/uart/uart.c:647
        return NULL;
     a1e:	4781                	li	a5,0
C:\Users\x-luo\proj\hw4\SW\riscv_mc_helloworld\Debug/../src/bsp/driver/uart/uart.c:649
    }
}
     a20:	853e                	mv	a0,a5
     a22:	40b2                	lw	ra,12(sp)
     a24:	4422                	lw	s0,8(sp)
     a26:	0141                	addi	sp,sp,16
     a28:	8082                	ret

00000a2a <spi_master_init>:
spi_master_init():
C:\Users\x-luo\proj\hw4\SW\riscv_mc_helloworld\Debug/../src/bsp/driver/spi_controller/spi_master.c:51
			uint32_t *rx_buf,
			uint32_t prescaler,
			uint32_t spi_rx_fifo_afull_flag,
			uint32_t spi_rx_fifo_depth,
			uint32_t spi_tx_fifo_depth)
{
     a2a:	7179                	addi	sp,sp,-48
     a2c:	d622                	sw	s0,44(sp)
     a2e:	1800                	addi	s0,sp,48
     a30:	fea42623          	sw	a0,-20(s0)
     a34:	feb42423          	sw	a1,-24(s0)
     a38:	fed42023          	sw	a3,-32(s0)
     a3c:	fce42e23          	sw	a4,-36(s0)
     a40:	fcf42c23          	sw	a5,-40(s0)
     a44:	fd042a23          	sw	a6,-44(s0)
     a48:	fd142823          	sw	a7,-48(s0)
     a4c:	87b2                	mv	a5,a2
     a4e:	fef403a3          	sb	a5,-25(s0)
C:\Users\x-luo\proj\hw4\SW\riscv_mc_helloworld\Debug/../src/bsp/driver/spi_controller/spi_master.c:52
	if(this_spim == NULL)
     a52:	fec42783          	lw	a5,-20(s0)
     a56:	e399                	bnez	a5,a5c <spi_master_init+0x32>
C:\Users\x-luo\proj\hw4\SW\riscv_mc_helloworld\Debug/../src/bsp/driver/spi_controller/spi_master.c:53
		return PTR_ERROR;
     a58:	4785                	li	a5,1
     a5a:	a8a9                	j	ab4 <spi_master_init+0x8a>
C:\Users\x-luo\proj\hw4\SW\riscv_mc_helloworld\Debug/../src/bsp/driver/spi_controller/spi_master.c:55

	if(spi_rx_fifo_depth < spi_rx_fifo_afull_flag)
     a5c:	fd042703          	lw	a4,-48(s0)
     a60:	fd442783          	lw	a5,-44(s0)
     a64:	00f77463          	bgeu	a4,a5,a6c <spi_master_init+0x42>
C:\Users\x-luo\proj\hw4\SW\riscv_mc_helloworld\Debug/../src/bsp/driver/spi_controller/spi_master.c:56
		return SPI_RX_FIFO_ERR;
     a68:	478d                	li	a5,3
     a6a:	a0a9                	j	ab4 <spi_master_init+0x8a>
C:\Users\x-luo\proj\hw4\SW\riscv_mc_helloworld\Debug/../src/bsp/driver/spi_controller/spi_master.c:58

	this_spim->base_address = base_addr;
     a6c:	fec42783          	lw	a5,-20(s0)
     a70:	fe842703          	lw	a4,-24(s0)
     a74:	c398                	sw	a4,0(a5)
C:\Users\x-luo\proj\hw4\SW\riscv_mc_helloworld\Debug/../src/bsp/driver/spi_controller/spi_master.c:59
	this_spim->slave_count = slave_count;
     a76:	fec42783          	lw	a5,-20(s0)
     a7a:	fe744703          	lbu	a4,-25(s0)
     a7e:	00e782a3          	sb	a4,5(a5)
C:\Users\x-luo\proj\hw4\SW\riscv_mc_helloworld\Debug/../src/bsp/driver/spi_controller/spi_master.c:60
	this_spim->spim_rxbuf = rx_buf;
     a82:	fec42783          	lw	a5,-20(s0)
     a86:	fdc42703          	lw	a4,-36(s0)
     a8a:	d798                	sw	a4,40(a5)
C:\Users\x-luo\proj\hw4\SW\riscv_mc_helloworld\Debug/../src/bsp/driver/spi_controller/spi_master.c:61
	this_spim->spim_txbuf = tx_buf;
     a8c:	fec42783          	lw	a5,-20(s0)
     a90:	fe042703          	lw	a4,-32(s0)
     a94:	d398                	sw	a4,32(a5)
C:\Users\x-luo\proj\hw4\SW\riscv_mc_helloworld\Debug/../src/bsp/driver/spi_controller/spi_master.c:62
	this_spim->spim_rx_fifo_afull_flag = spi_rx_fifo_afull_flag;
     a96:	fec42783          	lw	a5,-20(s0)
     a9a:	fd442703          	lw	a4,-44(s0)
     a9e:	cbd8                	sw	a4,20(a5)
C:\Users\x-luo\proj\hw4\SW\riscv_mc_helloworld\Debug/../src/bsp/driver/spi_controller/spi_master.c:63
	this_spim->spi_rx_fifo_depth = spi_rx_fifo_depth;
     aa0:	fec42783          	lw	a5,-20(s0)
     aa4:	fd042703          	lw	a4,-48(s0)
     aa8:	cf98                	sw	a4,24(a5)
C:\Users\x-luo\proj\hw4\SW\riscv_mc_helloworld\Debug/../src/bsp/driver/spi_controller/spi_master.c:64
	this_spim->spi_tx_fifo_depth = spi_tx_fifo_depth;
     aaa:	fec42783          	lw	a5,-20(s0)
     aae:	4018                	lw	a4,0(s0)
     ab0:	cfd8                	sw	a4,28(a5)
C:\Users\x-luo\proj\hw4\SW\riscv_mc_helloworld\Debug/../src/bsp/driver/spi_controller/spi_master.c:66

	return SUCCESS;
     ab2:	4781                	li	a5,0
C:\Users\x-luo\proj\hw4\SW\riscv_mc_helloworld\Debug/../src/bsp/driver/spi_controller/spi_master.c:67
}
     ab4:	853e                	mv	a0,a5
     ab6:	5432                	lw	s0,44(sp)
     ab8:	6145                	addi	sp,sp,48
     aba:	8082                	ret

00000abc <spi_int_enable>:
spi_int_enable():
C:\Users\x-luo\proj\hw4\SW\riscv_mc_helloworld\Debug/../src/bsp/driver/spi_controller/spi_master.c:347
}




void spi_int_enable(){
     abc:	1141                	addi	sp,sp,-16
     abe:	c622                	sw	s0,12(sp)
     ac0:	0800                	addi	s0,sp,16
C:\Users\x-luo\proj\hw4\SW\riscv_mc_helloworld\Debug/../src/bsp/driver/spi_controller/spi_master.c:348
	SPI->INT_ENABLE_REG = 0x80; // transfer complete
     ac2:	67a5                	lui	a5,0x9
     ac4:	80078793          	addi	a5,a5,-2048 # 8800 <_stack_start+0x4dd0>
     ac8:	08000713          	li	a4,128
     acc:	cf98                	sw	a4,24(a5)
C:\Users\x-luo\proj\hw4\SW\riscv_mc_helloworld\Debug/../src/bsp/driver/spi_controller/spi_master.c:349
}
     ace:	0001                	nop
     ad0:	4432                	lw	s0,12(sp)
     ad2:	0141                	addi	sp,sp,16
     ad4:	8082                	ret

00000ad6 <spi_isr>:
spi_isr():
C:\Users\x-luo\proj\hw4\SW\riscv_mc_helloworld\Debug/../src/bsp/driver/spi_controller/spi_master.c:356



uint32_t channel_value = -1; // invalid value

void spi_isr(void* ctx){
     ad6:	1101                	addi	sp,sp,-32
     ad8:	ce22                	sw	s0,28(sp)
     ada:	1000                	addi	s0,sp,32
     adc:	fea42623          	sw	a0,-20(s0)
C:\Users\x-luo\proj\hw4\SW\riscv_mc_helloworld\Debug/../src/bsp/driver/spi_controller/spi_master.c:357
	channel_value = SPI->RDWR_DATA_REG;
     ae0:	67a5                	lui	a5,0x9
     ae2:	80078793          	addi	a5,a5,-2048 # 8800 <_stack_start+0x4dd0>
     ae6:	4398                	lw	a4,0(a5)
     ae8:	678d                	lui	a5,0x3
     aea:	d6e7aa23          	sw	a4,-652(a5) # 2d74 <channel_value>
C:\Users\x-luo\proj\hw4\SW\riscv_mc_helloworld\Debug/../src/bsp/driver/spi_controller/spi_master.c:358
	SPI->INT_STATUS_REG = 0xff;  // clear all interrupt
     aee:	67a5                	lui	a5,0x9
     af0:	80078793          	addi	a5,a5,-2048 # 8800 <_stack_start+0x4dd0>
     af4:	0ff00713          	li	a4,255
     af8:	cbd8                	sw	a4,20(a5)
C:\Users\x-luo\proj\hw4\SW\riscv_mc_helloworld\Debug/../src/bsp/driver/spi_controller/spi_master.c:359
	spi_state = SPI_TX_DONE;
     afa:	4709                	li	a4,2
     afc:	80e1aa23          	sw	a4,-2028(gp) # 2d88 <spi_state>
C:\Users\x-luo\proj\hw4\SW\riscv_mc_helloworld\Debug/../src/bsp/driver/spi_controller/spi_master.c:360
}
     b00:	0001                	nop
     b02:	4472                	lw	s0,28(sp)
     b04:	6105                	addi	sp,sp,32
     b06:	8082                	ret

00000b08 <spi_get_value>:
spi_get_value():
C:\Users\x-luo\proj\hw4\SW\riscv_mc_helloworld\Debug/../src/bsp/driver/spi_controller/spi_master.c:362

int32_t spi_get_value(){
     b08:	1141                	addi	sp,sp,-16
     b0a:	c622                	sw	s0,12(sp)
     b0c:	0800                	addi	s0,sp,16
C:\Users\x-luo\proj\hw4\SW\riscv_mc_helloworld\Debug/../src/bsp/driver/spi_controller/spi_master.c:363
	if( spi_state == SPI_TX_DONE ){
     b0e:	8141a703          	lw	a4,-2028(gp) # 2d88 <spi_state>
     b12:	4789                	li	a5,2
     b14:	00f71863          	bne	a4,a5,b24 <spi_get_value+0x1c>
C:\Users\x-luo\proj\hw4\SW\riscv_mc_helloworld\Debug/../src/bsp/driver/spi_controller/spi_master.c:365

		spi_state = SPI_IDEL;
     b18:	8001aa23          	sw	zero,-2028(gp) # 2d88 <spi_state>
C:\Users\x-luo\proj\hw4\SW\riscv_mc_helloworld\Debug/../src/bsp/driver/spi_controller/spi_master.c:366
		return channel_value;
     b1c:	678d                	lui	a5,0x3
     b1e:	d747a783          	lw	a5,-652(a5) # 2d74 <channel_value>
     b22:	a011                	j	b26 <spi_get_value+0x1e>
C:\Users\x-luo\proj\hw4\SW\riscv_mc_helloworld\Debug/../src/bsp/driver/spi_controller/spi_master.c:370
	}

	else
		return -1;
     b24:	57fd                	li	a5,-1
C:\Users\x-luo\proj\hw4\SW\riscv_mc_helloworld\Debug/../src/bsp/driver/spi_controller/spi_master.c:371
}
     b26:	853e                	mv	a0,a5
     b28:	4432                	lw	s0,12(sp)
     b2a:	0141                	addi	sp,sp,16
     b2c:	8082                	ret

00000b2e <crtInit>:
crtInit():
C:\Users\x-luo\proj\hw4\SW\riscv_mc_helloworld\Debug/../src/bsp/driver/riscv_mc/crt0.S:63
  .text


crtInit:
  la t0, trap_entry
     b2e:	01000293          	li	t0,16
C:\Users\x-luo\proj\hw4\SW\riscv_mc_helloworld\Debug/../src/bsp/driver/riscv_mc/crt0.S:64
  csrw mtvec, t0
     b32:	30529073          	csrw	mtvec,t0
C:\Users\x-luo\proj\hw4\SW\riscv_mc_helloworld\Debug/../src/bsp/driver/riscv_mc/crt0.S:65
  csrwi mstatus, 0
     b36:	30005073          	csrwi	mstatus,0
C:\Users\x-luo\proj\hw4\SW\riscv_mc_helloworld\Debug/../src/bsp/driver/riscv_mc/crt0.S:66
  csrwi mie, 0
     b3a:	30405073          	csrwi	mie,0
C:\Users\x-luo\proj\hw4\SW\riscv_mc_helloworld\Debug/../src/bsp/driver/riscv_mc/crt0.S:70

  .option push
  .option norelax
  la gp, __global_pointer$
     b3e:	00003197          	auipc	gp,0x3
     b42:	a3618193          	addi	gp,gp,-1482 # 3574 <__global_pointer$>
C:\Users\x-luo\proj\hw4\SW\riscv_mc_helloworld\Debug/../src/bsp/driver/riscv_mc/crt0.S:72
  .option pop
  la sp, _stack_start
     b46:	4bc18113          	addi	sp,gp,1212 # 3a30 <_stack_start>

00000b4a <bss_init>:
bss_init():
C:\Users\x-luo\proj\hw4\SW\riscv_mc_helloworld\Debug/../src/bsp/driver/riscv_mc/crt0.S:75

bss_init:
  la a0, _bss_start
     b4a:	00002517          	auipc	a0,0x2
     b4e:	22e50513          	addi	a0,a0,558 # 2d78 <input_index>
C:\Users\x-luo\proj\hw4\SW\riscv_mc_helloworld\Debug/../src/bsp/driver/riscv_mc/crt0.S:76
  la a1, _bss_end
     b52:	abc18593          	addi	a1,gp,-1348 # 3030 <_bss_end>

00000b56 <bss_loop>:
bss_loop():
C:\Users\x-luo\proj\hw4\SW\riscv_mc_helloworld\Debug/../src/bsp/driver/riscv_mc/crt0.S:78
bss_loop:
  beq a0,a1,bss_done
     b56:	00b50663          	beq	a0,a1,b62 <bss_done>
C:\Users\x-luo\proj\hw4\SW\riscv_mc_helloworld\Debug/../src/bsp/driver/riscv_mc/crt0.S:79
  sw zero,0(a0)
     b5a:	00052023          	sw	zero,0(a0)
C:\Users\x-luo\proj\hw4\SW\riscv_mc_helloworld\Debug/../src/bsp/driver/riscv_mc/crt0.S:80
  add a0,a0,4
     b5e:	0511                	addi	a0,a0,4
C:\Users\x-luo\proj\hw4\SW\riscv_mc_helloworld\Debug/../src/bsp/driver/riscv_mc/crt0.S:81
  j bss_loop
     b60:	bfdd                	j	b56 <bss_loop>

00000b62 <bss_done>:
bss_done():
C:\Users\x-luo\proj\hw4\SW\riscv_mc_helloworld\Debug/../src/bsp/driver/riscv_mc/crt0.S:105
//  li a0, 0x880     //880 enable timer + external interrupts
//  csrw mie,a0
//  li a0, 0x1808     //1808 enable interrupts
//  csrw mstatus,a0

  call main
     b62:	1e5000ef          	jal	ra,1546 <main>
C:\Users\x-luo\proj\hw4\SW\riscv_mc_helloworld\Debug/../src/bsp/driver/riscv_mc/crt0.S:106
  call _exit
     b66:	2029                	jal	b70 <_exit>

00000b68 <infinitLoop>:
infinitLoop():
C:\Users\x-luo\proj\hw4\SW\riscv_mc_helloworld\Debug/../src/bsp/driver/riscv_mc/crt0.S:108
infinitLoop:
  j infinitLoop
     b68:	a001                	j	b68 <infinitLoop>
C:\Users\x-luo\proj\hw4\SW\riscv_mc_helloworld\Debug/../src/bsp/driver/riscv_mc/crt0.S:111

irq_callback:
  ret
     b6a:	8082                	ret
C:\Users\x-luo\proj\hw4\SW\riscv_mc_helloworld\Debug/../src/bsp/driver/riscv_mc/crt0.S:114

esr_callback:
  j esr_callback
     b6c:	0c20006f          	j	c2e <esr_callback>

00000b70 <_exit>:
_exit():
C:\Users\x-luo\proj\hw4\SW\riscv_mc_helloworld\Debug/../src/bsp/driver/riscv_mc/exit.c:57
#include <stdio.h>
#include <sys/cdefs.h>

void __attribute__ ((weak, __noreturn__))
_exit (int status)
{
     b70:	1101                	addi	sp,sp,-32
     b72:	ce22                	sw	s0,28(sp)
     b74:	1000                	addi	s0,sp,32
     b76:	fea42623          	sw	a0,-20(s0)
C:\Users\x-luo\proj\hw4\SW\riscv_mc_helloworld\Debug/../src/bsp/driver/riscv_mc/exit.c:59 (discriminator 1)
	(void) status;
	while(1);
     b7a:	a001                	j	b7a <_exit+0xa>

00000b7c <irq_callback>:
irq_callback():
C:\Users\x-luo\proj\hw4\SW\riscv_mc_helloworld\Debug/../src/bsp/driver/riscv_mc/interrupt.c:57
#include "interrupt.h"

extern struct interrupt_entry int_table[S_INT_NUM];

void irq_callback(unsigned int mcause)
{
     b7c:	7179                	addi	sp,sp,-48
     b7e:	d606                	sw	ra,44(sp)
     b80:	d422                	sw	s0,40(sp)
     b82:	1800                	addi	s0,sp,48
     b84:	fca42e23          	sw	a0,-36(s0)
C:\Users\x-luo\proj\hw4\SW\riscv_mc_helloworld\Debug/../src/bsp/driver/riscv_mc/interrupt.c:59

	if ((mcause & MCAUSE_VAL_MASK) == MCAUSE_VAL_MTIP) {
     b88:	fdc42783          	lw	a5,-36(s0)
     b8c:	00f7f713          	andi	a4,a5,15
     b90:	479d                	li	a5,7
     b92:	00f71f63          	bne	a4,a5,bb0 <irq_callback+0x34>
C:\Users\x-luo\proj\hw4\SW\riscv_mc_helloworld\Debug/../src/bsp/driver/riscv_mc/interrupt.c:60
		if (int_table[S_INT_TIMER].isr) {
     b96:	8ac18793          	addi	a5,gp,-1876 # 2e20 <int_table>
     b9a:	43bc                	lw	a5,64(a5)
     b9c:	c7c1                	beqz	a5,c24 <irq_callback+0xa8>
C:\Users\x-luo\proj\hw4\SW\riscv_mc_helloworld\Debug/../src/bsp/driver/riscv_mc/interrupt.c:61
			int_table[S_INT_TIMER].isr(int_table[S_INT_TIMER].
     b9e:	8ac18793          	addi	a5,gp,-1876 # 2e20 <int_table>
     ba2:	43b8                	lw	a4,64(a5)
     ba4:	8ac18793          	addi	a5,gp,-1876 # 2e20 <int_table>
     ba8:	43fc                	lw	a5,68(a5)
     baa:	853e                	mv	a0,a5
     bac:	9702                	jalr	a4
C:\Users\x-luo\proj\hw4\SW\riscv_mc_helloworld\Debug/../src/bsp/driver/riscv_mc/interrupt.c:76
				}
				pic_int_clear(idx);
			}
		}
	}
}
     bae:	a89d                	j	c24 <irq_callback+0xa8>
C:\Users\x-luo\proj\hw4\SW\riscv_mc_helloworld\Debug/../src/bsp/driver/riscv_mc/interrupt.c:64
	} else if ((mcause & MCAUSE_VAL_MASK) == MCASUE_VAL_MEIP) {
     bb0:	fdc42783          	lw	a5,-36(s0)
     bb4:	00f7f713          	andi	a4,a5,15
     bb8:	47ad                	li	a5,11
     bba:	06f71563          	bne	a4,a5,c24 <irq_callback+0xa8>
C:\Users\x-luo\proj\hw4\SW\riscv_mc_helloworld\Debug/../src/bsp/driver/riscv_mc/interrupt.c:66
		for (idx = S_INT_PIC0; idx < S_INT_NUM; idx++) {
     bbe:	fe042623          	sw	zero,-20(s0)
     bc2:	a8a1                	j	c1a <irq_callback+0x9e>
C:\Users\x-luo\proj\hw4\SW\riscv_mc_helloworld\Debug/../src/bsp/driver/riscv_mc/interrupt.c:67
			if (pic_int_pending(idx)) {
     bc4:	fec42783          	lw	a5,-20(s0)
     bc8:	0ff7f793          	zext.b	a5,a5
     bcc:	853e                	mv	a0,a5
     bce:	24ad                	jal	e38 <pic_int_pending>
     bd0:	87aa                	mv	a5,a0
     bd2:	cf9d                	beqz	a5,c10 <irq_callback+0x94>
C:\Users\x-luo\proj\hw4\SW\riscv_mc_helloworld\Debug/../src/bsp/driver/riscv_mc/interrupt.c:68
				if (int_table[idx].isr) {
     bd4:	8ac18713          	addi	a4,gp,-1876 # 2e20 <int_table>
     bd8:	fec42783          	lw	a5,-20(s0)
     bdc:	078e                	slli	a5,a5,0x3
     bde:	97ba                	add	a5,a5,a4
     be0:	439c                	lw	a5,0(a5)
     be2:	c38d                	beqz	a5,c04 <irq_callback+0x88>
C:\Users\x-luo\proj\hw4\SW\riscv_mc_helloworld\Debug/../src/bsp/driver/riscv_mc/interrupt.c:69
					int_table[idx].isr(int_table[idx].
     be4:	8ac18713          	addi	a4,gp,-1876 # 2e20 <int_table>
     be8:	fec42783          	lw	a5,-20(s0)
     bec:	078e                	slli	a5,a5,0x3
     bee:	97ba                	add	a5,a5,a4
     bf0:	4394                	lw	a3,0(a5)
     bf2:	8ac18713          	addi	a4,gp,-1876 # 2e20 <int_table>
     bf6:	fec42783          	lw	a5,-20(s0)
     bfa:	078e                	slli	a5,a5,0x3
     bfc:	97ba                	add	a5,a5,a4
     bfe:	43dc                	lw	a5,4(a5)
     c00:	853e                	mv	a0,a5
     c02:	9682                	jalr	a3
C:\Users\x-luo\proj\hw4\SW\riscv_mc_helloworld\Debug/../src/bsp/driver/riscv_mc/interrupt.c:72
				pic_int_clear(idx);
     c04:	fec42783          	lw	a5,-20(s0)
     c08:	0ff7f793          	zext.b	a5,a5
     c0c:	853e                	mv	a0,a5
     c0e:	2411                	jal	e12 <pic_int_clear>
C:\Users\x-luo\proj\hw4\SW\riscv_mc_helloworld\Debug/../src/bsp/driver/riscv_mc/interrupt.c:66 (discriminator 2)
		for (idx = S_INT_PIC0; idx < S_INT_NUM; idx++) {
     c10:	fec42783          	lw	a5,-20(s0)
     c14:	0785                	addi	a5,a5,1
     c16:	fef42623          	sw	a5,-20(s0)
C:\Users\x-luo\proj\hw4\SW\riscv_mc_helloworld\Debug/../src/bsp/driver/riscv_mc/interrupt.c:66 (discriminator 1)
     c1a:	fec42703          	lw	a4,-20(s0)
     c1e:	47a1                	li	a5,8
     c20:	fae7d2e3          	bge	a5,a4,bc4 <irq_callback+0x48>
C:\Users\x-luo\proj\hw4\SW\riscv_mc_helloworld\Debug/../src/bsp/driver/riscv_mc/interrupt.c:76
}
     c24:	0001                	nop
     c26:	50b2                	lw	ra,44(sp)
     c28:	5422                	lw	s0,40(sp)
     c2a:	6145                	addi	sp,sp,48
     c2c:	8082                	ret

00000c2e <esr_callback>:
esr_callback():
C:\Users\x-luo\proj\hw4\SW\riscv_mc_helloworld\Debug/../src/bsp/driver/riscv_mc/interrupt.c:80

unsigned int esr_callback(unsigned int mcause, unsigned int mepc,
			  unsigned int sp)
{
     c2e:	1101                	addi	sp,sp,-32
     c30:	ce06                	sw	ra,28(sp)
     c32:	cc22                	sw	s0,24(sp)
     c34:	1000                	addi	s0,sp,32
     c36:	fea42623          	sw	a0,-20(s0)
     c3a:	feb42423          	sw	a1,-24(s0)
     c3e:	fec42223          	sw	a2,-28(s0)
C:\Users\x-luo\proj\hw4\SW\riscv_mc_helloworld\Debug/../src/bsp/driver/riscv_mc/interrupt.c:82

	printf("Exception caught: mcause=%d ,", mcause);
     c42:	fec42583          	lw	a1,-20(s0)
     c46:	678d                	lui	a5,0x3
     c48:	88078513          	addi	a0,a5,-1920 # 2880 <_etext+0x4c>
     c4c:	5f9000ef          	jal	ra,1a44 <printf>
C:\Users\x-luo\proj\hw4\SW\riscv_mc_helloworld\Debug/../src/bsp/driver/riscv_mc/interrupt.c:83
	printf("mepc=%x, sp=%x \r\n", mepc, sp);
     c50:	fe442603          	lw	a2,-28(s0)
     c54:	fe842583          	lw	a1,-24(s0)
     c58:	678d                	lui	a5,0x3
     c5a:	8a078513          	addi	a0,a5,-1888 # 28a0 <_etext+0x6c>
     c5e:	5e7000ef          	jal	ra,1a44 <printf>
C:\Users\x-luo\proj\hw4\SW\riscv_mc_helloworld\Debug/../src/bsp/driver/riscv_mc/interrupt.c:107
		break;
	}

	printf("\r\n");
#endif
	return mepc + 4;
     c62:	fe842783          	lw	a5,-24(s0)
     c66:	0791                	addi	a5,a5,4
C:\Users\x-luo\proj\hw4\SW\riscv_mc_helloworld\Debug/../src/bsp/driver/riscv_mc/interrupt.c:108
}
     c68:	853e                	mv	a0,a5
     c6a:	40f2                	lw	ra,28(sp)
     c6c:	4462                	lw	s0,24(sp)
     c6e:	6105                	addi	sp,sp,32
     c70:	8082                	ret

00000c72 <iob_init>:
iob_init():
C:\Users\x-luo\proj\hw4\SW\riscv_mc_helloworld\Debug/../src/bsp/driver/riscv_mc/iob.c:63
static lscc_getc_func s_getc_func;
static lscc_flush_func s_flush_func;


void iob_init(lscc_putc_func putc_func, lscc_getc_func getc_func, lscc_flush_func flush_func)
{
     c72:	1101                	addi	sp,sp,-32
     c74:	ce22                	sw	s0,28(sp)
     c76:	1000                	addi	s0,sp,32
     c78:	fea42623          	sw	a0,-20(s0)
     c7c:	feb42423          	sw	a1,-24(s0)
     c80:	fec42223          	sw	a2,-28(s0)
C:\Users\x-luo\proj\hw4\SW\riscv_mc_helloworld\Debug/../src/bsp/driver/riscv_mc/iob.c:64
	s_putc_func = putc_func;
     c84:	fec42703          	lw	a4,-20(s0)
     c88:	80e1ac23          	sw	a4,-2024(gp) # 2d8c <s_putc_func>
C:\Users\x-luo\proj\hw4\SW\riscv_mc_helloworld\Debug/../src/bsp/driver/riscv_mc/iob.c:65
	s_getc_func = getc_func;
     c8c:	fe842703          	lw	a4,-24(s0)
     c90:	80e1ae23          	sw	a4,-2020(gp) # 2d90 <s_getc_func>
C:\Users\x-luo\proj\hw4\SW\riscv_mc_helloworld\Debug/../src/bsp/driver/riscv_mc/iob.c:66
	s_flush_func = flush_func;
     c94:	fe442703          	lw	a4,-28(s0)
     c98:	82e1a023          	sw	a4,-2016(gp) # 2d94 <s_flush_func>
C:\Users\x-luo\proj\hw4\SW\riscv_mc_helloworld\Debug/../src/bsp/driver/riscv_mc/iob.c:67
}
     c9c:	0001                	nop
     c9e:	4472                	lw	s0,28(sp)
     ca0:	6105                	addi	sp,sp,32
     ca2:	8082                	ret

00000ca4 <iob_putc>:
iob_putc():
C:\Users\x-luo\proj\hw4\SW\riscv_mc_helloworld\Debug/../src/bsp/driver/riscv_mc/iob.c:71


static int iob_putc(char c, FILE *file)
{
     ca4:	1101                	addi	sp,sp,-32
     ca6:	ce06                	sw	ra,28(sp)
     ca8:	cc22                	sw	s0,24(sp)
     caa:	1000                	addi	s0,sp,32
     cac:	87aa                	mv	a5,a0
     cae:	feb42423          	sw	a1,-24(s0)
     cb2:	fef407a3          	sb	a5,-17(s0)
C:\Users\x-luo\proj\hw4\SW\riscv_mc_helloworld\Debug/../src/bsp/driver/riscv_mc/iob.c:72
	return s_putc_func ? (*s_putc_func)(c, file) : EOF;
     cb6:	8181a783          	lw	a5,-2024(gp) # 2d8c <s_putc_func>
     cba:	cb99                	beqz	a5,cd0 <iob_putc+0x2c>
C:\Users\x-luo\proj\hw4\SW\riscv_mc_helloworld\Debug/../src/bsp/driver/riscv_mc/iob.c:72 (discriminator 1)
     cbc:	8181a703          	lw	a4,-2024(gp) # 2d8c <s_putc_func>
     cc0:	fef40783          	lb	a5,-17(s0)
     cc4:	fe842583          	lw	a1,-24(s0)
     cc8:	853e                	mv	a0,a5
     cca:	9702                	jalr	a4
     ccc:	87aa                	mv	a5,a0
     cce:	a011                	j	cd2 <iob_putc+0x2e>
C:\Users\x-luo\proj\hw4\SW\riscv_mc_helloworld\Debug/../src/bsp/driver/riscv_mc/iob.c:72 (discriminator 2)
     cd0:	57fd                	li	a5,-1
C:\Users\x-luo\proj\hw4\SW\riscv_mc_helloworld\Debug/../src/bsp/driver/riscv_mc/iob.c:73 (discriminator 5)
}
     cd2:	853e                	mv	a0,a5
     cd4:	40f2                	lw	ra,28(sp)
     cd6:	4462                	lw	s0,24(sp)
     cd8:	6105                	addi	sp,sp,32
     cda:	8082                	ret

00000cdc <iob_getc>:
iob_getc():
C:\Users\x-luo\proj\hw4\SW\riscv_mc_helloworld\Debug/../src/bsp/driver/riscv_mc/iob.c:77


static int iob_getc(FILE *file)
{
     cdc:	1101                	addi	sp,sp,-32
     cde:	ce06                	sw	ra,28(sp)
     ce0:	cc22                	sw	s0,24(sp)
     ce2:	1000                	addi	s0,sp,32
     ce4:	fea42623          	sw	a0,-20(s0)
C:\Users\x-luo\proj\hw4\SW\riscv_mc_helloworld\Debug/../src/bsp/driver/riscv_mc/iob.c:78
	return s_getc_func ? (*s_getc_func)(file) : EOF;
     ce8:	81c1a783          	lw	a5,-2020(gp) # 2d90 <s_getc_func>
     cec:	cb81                	beqz	a5,cfc <iob_getc+0x20>
C:\Users\x-luo\proj\hw4\SW\riscv_mc_helloworld\Debug/../src/bsp/driver/riscv_mc/iob.c:78 (discriminator 1)
     cee:	81c1a783          	lw	a5,-2020(gp) # 2d90 <s_getc_func>
     cf2:	fec42503          	lw	a0,-20(s0)
     cf6:	9782                	jalr	a5
     cf8:	87aa                	mv	a5,a0
     cfa:	a011                	j	cfe <iob_getc+0x22>
C:\Users\x-luo\proj\hw4\SW\riscv_mc_helloworld\Debug/../src/bsp/driver/riscv_mc/iob.c:78 (discriminator 2)
     cfc:	57fd                	li	a5,-1
C:\Users\x-luo\proj\hw4\SW\riscv_mc_helloworld\Debug/../src/bsp/driver/riscv_mc/iob.c:79 (discriminator 5)
}
     cfe:	853e                	mv	a0,a5
     d00:	40f2                	lw	ra,28(sp)
     d02:	4462                	lw	s0,24(sp)
     d04:	6105                	addi	sp,sp,32
     d06:	8082                	ret

00000d08 <iob_flush>:
iob_flush():
C:\Users\x-luo\proj\hw4\SW\riscv_mc_helloworld\Debug/../src/bsp/driver/riscv_mc/iob.c:83


static int iob_flush(FILE *file)
{
     d08:	1101                	addi	sp,sp,-32
     d0a:	ce06                	sw	ra,28(sp)
     d0c:	cc22                	sw	s0,24(sp)
     d0e:	1000                	addi	s0,sp,32
     d10:	fea42623          	sw	a0,-20(s0)
C:\Users\x-luo\proj\hw4\SW\riscv_mc_helloworld\Debug/../src/bsp/driver/riscv_mc/iob.c:84
	return s_flush_func ? (*s_flush_func)(file) : 0;
     d14:	8201a783          	lw	a5,-2016(gp) # 2d94 <s_flush_func>
     d18:	cb81                	beqz	a5,d28 <iob_flush+0x20>
C:\Users\x-luo\proj\hw4\SW\riscv_mc_helloworld\Debug/../src/bsp/driver/riscv_mc/iob.c:84 (discriminator 1)
     d1a:	8201a783          	lw	a5,-2016(gp) # 2d94 <s_flush_func>
     d1e:	fec42503          	lw	a0,-20(s0)
     d22:	9782                	jalr	a5
     d24:	87aa                	mv	a5,a0
     d26:	a011                	j	d2a <iob_flush+0x22>
C:\Users\x-luo\proj\hw4\SW\riscv_mc_helloworld\Debug/../src/bsp/driver/riscv_mc/iob.c:84 (discriminator 2)
     d28:	4781                	li	a5,0
C:\Users\x-luo\proj\hw4\SW\riscv_mc_helloworld\Debug/../src/bsp/driver/riscv_mc/iob.c:85 (discriminator 5)
}
     d2a:	853e                	mv	a0,a5
     d2c:	40f2                	lw	ra,28(sp)
     d2e:	4462                	lw	s0,24(sp)
     d30:	6105                	addi	sp,sp,32
     d32:	8082                	ret

00000d34 <pic_init>:
pic_init():
C:\Users\x-luo\proj\hw4\SW\riscv_mc_helloworld\Debug/../src/bsp/driver/riscv_mc/pic.c:59

volatile struct pic_reg *pic_dev;
struct interrupt_entry int_table[S_INT_NUM];

unsigned char pic_init(unsigned int base)
{
     d34:	7179                	addi	sp,sp,-48
     d36:	d622                	sw	s0,44(sp)
     d38:	1800                	addi	s0,sp,48
     d3a:	fca42e23          	sw	a0,-36(s0)
C:\Users\x-luo\proj\hw4\SW\riscv_mc_helloworld\Debug/../src/bsp/driver/riscv_mc/pic.c:61
	unsigned int idx;
	pic_dev = (struct pic_reg *) base;
     d3e:	fdc42703          	lw	a4,-36(s0)
     d42:	82e1a223          	sw	a4,-2012(gp) # 2d98 <pic_dev>
C:\Users\x-luo\proj\hw4\SW\riscv_mc_helloworld\Debug/../src/bsp/driver/riscv_mc/pic.c:64

	/* init interrupt table */
	for (idx = 0; idx < S_INT_NUM; idx++) {
     d46:	fe042623          	sw	zero,-20(s0)
     d4a:	a035                	j	d76 <pic_init+0x42>
C:\Users\x-luo\proj\hw4\SW\riscv_mc_helloworld\Debug/../src/bsp/driver/riscv_mc/pic.c:65 (discriminator 3)
		int_table[idx].context = NULL;
     d4c:	8ac18713          	addi	a4,gp,-1876 # 2e20 <int_table>
     d50:	fec42783          	lw	a5,-20(s0)
     d54:	078e                	slli	a5,a5,0x3
     d56:	97ba                	add	a5,a5,a4
     d58:	0007a223          	sw	zero,4(a5)
C:\Users\x-luo\proj\hw4\SW\riscv_mc_helloworld\Debug/../src/bsp/driver/riscv_mc/pic.c:66 (discriminator 3)
		int_table[idx].isr = NULL;
     d5c:	8ac18713          	addi	a4,gp,-1876 # 2e20 <int_table>
     d60:	fec42783          	lw	a5,-20(s0)
     d64:	078e                	slli	a5,a5,0x3
     d66:	97ba                	add	a5,a5,a4
     d68:	0007a023          	sw	zero,0(a5)
C:\Users\x-luo\proj\hw4\SW\riscv_mc_helloworld\Debug/../src/bsp/driver/riscv_mc/pic.c:64 (discriminator 3)
	for (idx = 0; idx < S_INT_NUM; idx++) {
     d6c:	fec42783          	lw	a5,-20(s0)
     d70:	0785                	addi	a5,a5,1
     d72:	fef42623          	sw	a5,-20(s0)
C:\Users\x-luo\proj\hw4\SW\riscv_mc_helloworld\Debug/../src/bsp/driver/riscv_mc/pic.c:64 (discriminator 1)
     d76:	fec42703          	lw	a4,-20(s0)
     d7a:	47a1                	li	a5,8
     d7c:	fce7f8e3          	bgeu	a5,a4,d4c <pic_init+0x18>
C:\Users\x-luo\proj\hw4\SW\riscv_mc_helloworld\Debug/../src/bsp/driver/riscv_mc/pic.c:70
	}

	/*disable/clear all of the external interrupts */
	pic_dev->pic_status = 0xffffffff;
     d80:	8241a783          	lw	a5,-2012(gp) # 2d98 <pic_dev>
     d84:	577d                	li	a4,-1
     d86:	c398                	sw	a4,0(a5)
C:\Users\x-luo\proj\hw4\SW\riscv_mc_helloworld\Debug/../src/bsp/driver/riscv_mc/pic.c:71
	pic_dev->pic_en = 0;
     d88:	8241a783          	lw	a5,-2012(gp) # 2d98 <pic_dev>
     d8c:	0007a223          	sw	zero,4(a5)
C:\Users\x-luo\proj\hw4\SW\riscv_mc_helloworld\Debug/../src/bsp/driver/riscv_mc/pic.c:74

	/* enable external interrupt */
	__asm__ __volatile__("csrw mie, %0"::"r"(0x800));
     d90:	6785                	lui	a5,0x1
     d92:	80078793          	addi	a5,a5,-2048 # 800 <uart_putc+0x88>
     d96:	30479073          	csrw	mie,a5
C:\Users\x-luo\proj\hw4\SW\riscv_mc_helloworld\Debug/../src/bsp/driver/riscv_mc/pic.c:77

	/* enable interrupts */
	__asm__ __volatile__("csrw mstatus, %0"::"r"(0x1808));
     d9a:	6789                	lui	a5,0x2
     d9c:	80878793          	addi	a5,a5,-2040 # 1808 <execute_command+0x10e>
     da0:	30079073          	csrw	mstatus,a5
C:\Users\x-luo\proj\hw4\SW\riscv_mc_helloworld\Debug/../src/bsp/driver/riscv_mc/pic.c:78
	return 0;
     da4:	4781                	li	a5,0
C:\Users\x-luo\proj\hw4\SW\riscv_mc_helloworld\Debug/../src/bsp/driver/riscv_mc/pic.c:79
}
     da6:	853e                	mv	a0,a5
     da8:	5432                	lw	s0,44(sp)
     daa:	6145                	addi	sp,sp,48
     dac:	8082                	ret

00000dae <pic_int_enable>:
pic_int_enable():
C:\Users\x-luo\proj\hw4\SW\riscv_mc_helloworld\Debug/../src/bsp/driver/riscv_mc/pic.c:82

unsigned char pic_int_enable(unsigned char src)
{
     dae:	1101                	addi	sp,sp,-32
     db0:	ce22                	sw	s0,28(sp)
     db2:	1000                	addi	s0,sp,32
     db4:	87aa                	mv	a5,a0
     db6:	fef407a3          	sb	a5,-17(s0)
C:\Users\x-luo\proj\hw4\SW\riscv_mc_helloworld\Debug/../src/bsp/driver/riscv_mc/pic.c:83
	pic_dev->pic_en |= 1 << (src);
     dba:	8241a783          	lw	a5,-2012(gp) # 2d98 <pic_dev>
     dbe:	43d8                	lw	a4,4(a5)
     dc0:	fef44783          	lbu	a5,-17(s0)
     dc4:	4685                	li	a3,1
     dc6:	00f697b3          	sll	a5,a3,a5
     dca:	86be                	mv	a3,a5
     dcc:	8241a783          	lw	a5,-2012(gp) # 2d98 <pic_dev>
     dd0:	8f55                	or	a4,a4,a3
     dd2:	c3d8                	sw	a4,4(a5)
C:\Users\x-luo\proj\hw4\SW\riscv_mc_helloworld\Debug/../src/bsp/driver/riscv_mc/pic.c:84
	return 0;
     dd4:	4781                	li	a5,0
C:\Users\x-luo\proj\hw4\SW\riscv_mc_helloworld\Debug/../src/bsp/driver/riscv_mc/pic.c:85
}
     dd6:	853e                	mv	a0,a5
     dd8:	4472                	lw	s0,28(sp)
     dda:	6105                	addi	sp,sp,32
     ddc:	8082                	ret

00000dde <pic_int_disable>:
pic_int_disable():
C:\Users\x-luo\proj\hw4\SW\riscv_mc_helloworld\Debug/../src/bsp/driver/riscv_mc/pic.c:88

unsigned char pic_int_disable(unsigned char src)
{
     dde:	1101                	addi	sp,sp,-32
     de0:	ce22                	sw	s0,28(sp)
     de2:	1000                	addi	s0,sp,32
     de4:	87aa                	mv	a5,a0
     de6:	fef407a3          	sb	a5,-17(s0)
C:\Users\x-luo\proj\hw4\SW\riscv_mc_helloworld\Debug/../src/bsp/driver/riscv_mc/pic.c:89
	pic_dev->pic_en &= (~(1 << src));
     dea:	8241a783          	lw	a5,-2012(gp) # 2d98 <pic_dev>
     dee:	43d8                	lw	a4,4(a5)
     df0:	fef44783          	lbu	a5,-17(s0)
     df4:	4685                	li	a3,1
     df6:	00f697b3          	sll	a5,a3,a5
     dfa:	fff7c793          	not	a5,a5
     dfe:	86be                	mv	a3,a5
     e00:	8241a783          	lw	a5,-2012(gp) # 2d98 <pic_dev>
     e04:	8f75                	and	a4,a4,a3
     e06:	c3d8                	sw	a4,4(a5)
C:\Users\x-luo\proj\hw4\SW\riscv_mc_helloworld\Debug/../src/bsp/driver/riscv_mc/pic.c:90
	return 0;
     e08:	4781                	li	a5,0
C:\Users\x-luo\proj\hw4\SW\riscv_mc_helloworld\Debug/../src/bsp/driver/riscv_mc/pic.c:91
}
     e0a:	853e                	mv	a0,a5
     e0c:	4472                	lw	s0,28(sp)
     e0e:	6105                	addi	sp,sp,32
     e10:	8082                	ret

00000e12 <pic_int_clear>:
pic_int_clear():
C:\Users\x-luo\proj\hw4\SW\riscv_mc_helloworld\Debug/../src/bsp/driver/riscv_mc/pic.c:94

unsigned char pic_int_clear(unsigned char src)
{
     e12:	1101                	addi	sp,sp,-32
     e14:	ce22                	sw	s0,28(sp)
     e16:	1000                	addi	s0,sp,32
     e18:	87aa                	mv	a5,a0
     e1a:	fef407a3          	sb	a5,-17(s0)
C:\Users\x-luo\proj\hw4\SW\riscv_mc_helloworld\Debug/../src/bsp/driver/riscv_mc/pic.c:95
	pic_dev->pic_status = 1 << (src);
     e1e:	fef44783          	lbu	a5,-17(s0)
     e22:	4705                	li	a4,1
     e24:	00f71733          	sll	a4,a4,a5
     e28:	8241a783          	lw	a5,-2012(gp) # 2d98 <pic_dev>
     e2c:	c398                	sw	a4,0(a5)
C:\Users\x-luo\proj\hw4\SW\riscv_mc_helloworld\Debug/../src/bsp/driver/riscv_mc/pic.c:96
	return 0;
     e2e:	4781                	li	a5,0
C:\Users\x-luo\proj\hw4\SW\riscv_mc_helloworld\Debug/../src/bsp/driver/riscv_mc/pic.c:97
}
     e30:	853e                	mv	a0,a5
     e32:	4472                	lw	s0,28(sp)
     e34:	6105                	addi	sp,sp,32
     e36:	8082                	ret

00000e38 <pic_int_pending>:
pic_int_pending():
C:\Users\x-luo\proj\hw4\SW\riscv_mc_helloworld\Debug/../src/bsp/driver/riscv_mc/pic.c:100

unsigned char pic_int_pending(unsigned char src)
{
     e38:	7179                	addi	sp,sp,-48
     e3a:	d622                	sw	s0,44(sp)
     e3c:	1800                	addi	s0,sp,48
     e3e:	87aa                	mv	a5,a0
     e40:	fcf40fa3          	sb	a5,-33(s0)
C:\Users\x-luo\proj\hw4\SW\riscv_mc_helloworld\Debug/../src/bsp/driver/riscv_mc/pic.c:101
	unsigned int ifr = pic_dev->pic_status;
     e44:	8241a783          	lw	a5,-2012(gp) # 2d98 <pic_dev>
     e48:	439c                	lw	a5,0(a5)
     e4a:	fef42623          	sw	a5,-20(s0)
C:\Users\x-luo\proj\hw4\SW\riscv_mc_helloworld\Debug/../src/bsp/driver/riscv_mc/pic.c:103

	if (ifr & (1 << src)) {
     e4e:	fdf44783          	lbu	a5,-33(s0)
     e52:	4705                	li	a4,1
     e54:	00f717b3          	sll	a5,a4,a5
     e58:	873e                	mv	a4,a5
     e5a:	fec42783          	lw	a5,-20(s0)
     e5e:	8ff9                	and	a5,a5,a4
     e60:	c399                	beqz	a5,e66 <pic_int_pending+0x2e>
C:\Users\x-luo\proj\hw4\SW\riscv_mc_helloworld\Debug/../src/bsp/driver/riscv_mc/pic.c:104
		return 1;
     e62:	4785                	li	a5,1
     e64:	a011                	j	e68 <pic_int_pending+0x30>
C:\Users\x-luo\proj\hw4\SW\riscv_mc_helloworld\Debug/../src/bsp/driver/riscv_mc/pic.c:107
	}

	return 0;
     e66:	4781                	li	a5,0
C:\Users\x-luo\proj\hw4\SW\riscv_mc_helloworld\Debug/../src/bsp/driver/riscv_mc/pic.c:108
}
     e68:	853e                	mv	a0,a5
     e6a:	5432                	lw	s0,44(sp)
     e6c:	6145                	addi	sp,sp,48
     e6e:	8082                	ret

00000e70 <pic_isr_register>:
pic_isr_register():
C:\Users\x-luo\proj\hw4\SW\riscv_mc_helloworld\Debug/../src/bsp/driver/riscv_mc/pic.c:136
	return 0;
}

unsigned char pic_isr_register(unsigned char src, void (*isr) (void *),
			       void *context)
{
     e70:	1101                	addi	sp,sp,-32
     e72:	ce06                	sw	ra,28(sp)
     e74:	cc22                	sw	s0,24(sp)
     e76:	1000                	addi	s0,sp,32
     e78:	87aa                	mv	a5,a0
     e7a:	feb42423          	sw	a1,-24(s0)
     e7e:	fec42223          	sw	a2,-28(s0)
     e82:	fef407a3          	sb	a5,-17(s0)
C:\Users\x-luo\proj\hw4\SW\riscv_mc_helloworld\Debug/../src/bsp/driver/riscv_mc/pic.c:137
	if (src >= S_INT_NUM) {
     e86:	fef44703          	lbu	a4,-17(s0)
     e8a:	47a1                	li	a5,8
     e8c:	00e7f463          	bgeu	a5,a4,e94 <pic_isr_register+0x24>
C:\Users\x-luo\proj\hw4\SW\riscv_mc_helloworld\Debug/../src/bsp/driver/riscv_mc/pic.c:138
		return 1;
     e90:	4785                	li	a5,1
     e92:	a82d                	j	ecc <pic_isr_register+0x5c>
C:\Users\x-luo\proj\hw4\SW\riscv_mc_helloworld\Debug/../src/bsp/driver/riscv_mc/pic.c:140
	}
	if (NULL == context) {
     e94:	fe442783          	lw	a5,-28(s0)
     e98:	e399                	bnez	a5,e9e <pic_isr_register+0x2e>
C:\Users\x-luo\proj\hw4\SW\riscv_mc_helloworld\Debug/../src/bsp/driver/riscv_mc/pic.c:141
		return 1;
     e9a:	4785                	li	a5,1
     e9c:	a805                	j	ecc <pic_isr_register+0x5c>
C:\Users\x-luo\proj\hw4\SW\riscv_mc_helloworld\Debug/../src/bsp/driver/riscv_mc/pic.c:145
	}

	/* register on the isr */
	int_table[src].isr = isr;
     e9e:	fef44783          	lbu	a5,-17(s0)
     ea2:	8ac18713          	addi	a4,gp,-1876 # 2e20 <int_table>
     ea6:	078e                	slli	a5,a5,0x3
     ea8:	97ba                	add	a5,a5,a4
     eaa:	fe842703          	lw	a4,-24(s0)
     eae:	c398                	sw	a4,0(a5)
C:\Users\x-luo\proj\hw4\SW\riscv_mc_helloworld\Debug/../src/bsp/driver/riscv_mc/pic.c:146
	int_table[src].context = context;
     eb0:	fef44783          	lbu	a5,-17(s0)
     eb4:	8ac18713          	addi	a4,gp,-1876 # 2e20 <int_table>
     eb8:	078e                	slli	a5,a5,0x3
     eba:	97ba                	add	a5,a5,a4
     ebc:	fe442703          	lw	a4,-28(s0)
     ec0:	c3d8                	sw	a4,4(a5)
C:\Users\x-luo\proj\hw4\SW\riscv_mc_helloworld\Debug/../src/bsp/driver/riscv_mc/pic.c:149

	/* mask on the interrupt source */
	pic_int_enable(src);
     ec2:	fef44783          	lbu	a5,-17(s0)
     ec6:	853e                	mv	a0,a5
     ec8:	35dd                	jal	dae <pic_int_enable>
C:\Users\x-luo\proj\hw4\SW\riscv_mc_helloworld\Debug/../src/bsp/driver/riscv_mc/pic.c:151

	return 0;
     eca:	4781                	li	a5,0
C:\Users\x-luo\proj\hw4\SW\riscv_mc_helloworld\Debug/../src/bsp/driver/riscv_mc/pic.c:152
}
     ecc:	853e                	mv	a0,a5
     ece:	40f2                	lw	ra,28(sp)
     ed0:	4462                	lw	s0,24(sp)
     ed2:	6105                	addi	sp,sp,32
     ed4:	8082                	ret

00000ed6 <reg_32b_write>:
reg_32b_write():
C:\Users\x-luo\proj\hw4\SW\riscv_mc_helloworld\Debug/../src/bsp/driver/riscv_mc/reg_access.c:55
     ================================================================== */

#include "reg_access.h"

unsigned char reg_32b_write(unsigned int reg_addr, unsigned int value)
{
     ed6:	7179                	addi	sp,sp,-48
     ed8:	d622                	sw	s0,44(sp)
     eda:	1800                	addi	s0,sp,48
     edc:	fca42e23          	sw	a0,-36(s0)
     ee0:	fcb42c23          	sw	a1,-40(s0)
C:\Users\x-luo\proj\hw4\SW\riscv_mc_helloworld\Debug/../src/bsp/driver/riscv_mc/reg_access.c:56
	unsigned int volatile *reg_value = (void *) reg_addr;
     ee4:	fdc42783          	lw	a5,-36(s0)
     ee8:	fef42623          	sw	a5,-20(s0)
C:\Users\x-luo\proj\hw4\SW\riscv_mc_helloworld\Debug/../src/bsp/driver/riscv_mc/reg_access.c:58

	*reg_value = value;
     eec:	fec42783          	lw	a5,-20(s0)
     ef0:	fd842703          	lw	a4,-40(s0)
     ef4:	c398                	sw	a4,0(a5)
C:\Users\x-luo\proj\hw4\SW\riscv_mc_helloworld\Debug/../src/bsp/driver/riscv_mc/reg_access.c:59
	return 0;
     ef6:	4781                	li	a5,0
C:\Users\x-luo\proj\hw4\SW\riscv_mc_helloworld\Debug/../src/bsp/driver/riscv_mc/reg_access.c:60
}
     ef8:	853e                	mv	a0,a5
     efa:	5432                	lw	s0,44(sp)
     efc:	6145                	addi	sp,sp,48
     efe:	8082                	ret

00000f00 <reg_32b_read>:
reg_32b_read():
C:\Users\x-luo\proj\hw4\SW\riscv_mc_helloworld\Debug/../src/bsp/driver/riscv_mc/reg_access.c:64

unsigned char reg_32b_read(unsigned int reg_addr,
			   unsigned int *reg_32b_value)
{
     f00:	7179                	addi	sp,sp,-48
     f02:	d622                	sw	s0,44(sp)
     f04:	1800                	addi	s0,sp,48
     f06:	fca42e23          	sw	a0,-36(s0)
     f0a:	fcb42c23          	sw	a1,-40(s0)
C:\Users\x-luo\proj\hw4\SW\riscv_mc_helloworld\Debug/../src/bsp/driver/riscv_mc/reg_access.c:65
	unsigned int volatile *reg_value = (void *) reg_addr;
     f0e:	fdc42783          	lw	a5,-36(s0)
     f12:	fef42623          	sw	a5,-20(s0)
C:\Users\x-luo\proj\hw4\SW\riscv_mc_helloworld\Debug/../src/bsp/driver/riscv_mc/reg_access.c:66
	*reg_32b_value = *reg_value;
     f16:	fec42783          	lw	a5,-20(s0)
     f1a:	4398                	lw	a4,0(a5)
     f1c:	fd842783          	lw	a5,-40(s0)
     f20:	c398                	sw	a4,0(a5)
C:\Users\x-luo\proj\hw4\SW\riscv_mc_helloworld\Debug/../src/bsp/driver/riscv_mc/reg_access.c:68

	return 0;
     f22:	4781                	li	a5,0
C:\Users\x-luo\proj\hw4\SW\riscv_mc_helloworld\Debug/../src/bsp/driver/riscv_mc/reg_access.c:69
}
     f24:	853e                	mv	a0,a5
     f26:	5432                	lw	s0,44(sp)
     f28:	6145                	addi	sp,sp,48
     f2a:	8082                	ret

00000f2c <timer_isr>:
timer_isr():
C:\Users\x-luo\proj\hw4\SW\riscv_mc_helloworld\Debug/../src/bsp/driver/riscv_mc/timer.c:63

//struct interrupt_entry intTimer;
extern struct interrupt_entry int_table[S_INT_NUM];

static void timer_isr(void *context)
{
     f2c:	7179                	addi	sp,sp,-48
     f2e:	d606                	sw	ra,44(sp)
     f30:	d422                	sw	s0,40(sp)
     f32:	1800                	addi	s0,sp,48
     f34:	fca42e23          	sw	a0,-36(s0)
C:\Users\x-luo\proj\hw4\SW\riscv_mc_helloworld\Debug/../src/bsp/driver/riscv_mc/timer.c:64
	struct timer_instance *ctx = (struct timer_instance *) context;
     f38:	fdc42783          	lw	a5,-36(s0)
     f3c:	fef42623          	sw	a5,-20(s0)
C:\Users\x-luo\proj\hw4\SW\riscv_mc_helloworld\Debug/../src/bsp/driver/riscv_mc/timer.c:66

	if (ctx->callback) {
     f40:	fec42783          	lw	a5,-20(s0)
     f44:	4b9c                	lw	a5,16(a5)
     f46:	cb89                	beqz	a5,f58 <timer_isr+0x2c>
C:\Users\x-luo\proj\hw4\SW\riscv_mc_helloworld\Debug/../src/bsp/driver/riscv_mc/timer.c:67
		ctx->callback(ctx->userCtx);
     f48:	fec42783          	lw	a5,-20(s0)
     f4c:	4b98                	lw	a4,16(a5)
     f4e:	fec42783          	lw	a5,-20(s0)
     f52:	4bdc                	lw	a5,20(a5)
     f54:	853e                	mv	a0,a5
     f56:	9702                	jalr	a4
C:\Users\x-luo\proj\hw4\SW\riscv_mc_helloworld\Debug/../src/bsp/driver/riscv_mc/timer.c:69
	}
	if (ctx->periodic) {
     f58:	fec42783          	lw	a5,-20(s0)
     f5c:	00c7c783          	lbu	a5,12(a5)
     f60:	cb81                	beqz	a5,f70 <timer_isr+0x44>
C:\Users\x-luo\proj\hw4\SW\riscv_mc_helloworld\Debug/../src/bsp/driver/riscv_mc/timer.c:70
		timer_reload(ctx, ctx->delay);
     f62:	fec42783          	lw	a5,-20(s0)
     f66:	479c                	lw	a5,8(a5)
     f68:	85be                	mv	a1,a5
     f6a:	fec42503          	lw	a0,-20(s0)
     f6e:	2c41                	jal	11fe <timer_reload>
C:\Users\x-luo\proj\hw4\SW\riscv_mc_helloworld\Debug/../src/bsp/driver/riscv_mc/timer.c:74
	}

	static int toggle = 0;
	toggle = !toggle;
     f70:	8281a783          	lw	a5,-2008(gp) # 2d9c <toggle.1>
     f74:	0017b793          	seqz	a5,a5
     f78:	0ff7f793          	zext.b	a5,a5
     f7c:	873e                	mv	a4,a5
     f7e:	82e1a423          	sw	a4,-2008(gp) # 2d9c <toggle.1>
C:\Users\x-luo\proj\hw4\SW\riscv_mc_helloworld\Debug/../src/bsp/driver/riscv_mc/timer.c:75
	if( toggle ){
     f82:	8281a783          	lw	a5,-2008(gp) # 2d9c <toggle.1>
     f86:	cb81                	beqz	a5,f96 <timer_isr+0x6a>
C:\Users\x-luo\proj\hw4\SW\riscv_mc_helloworld\Debug/../src/bsp/driver/riscv_mc/timer.c:76
		GPIO->WR_DATA_REG = 0xff;
     f88:	67a1                	lui	a5,0x8
     f8a:	40078793          	addi	a5,a5,1024 # 8400 <_stack_start+0x49d0>
     f8e:	0ff00713          	li	a4,255
     f92:	c3d8                	sw	a4,4(a5)
C:\Users\x-luo\proj\hw4\SW\riscv_mc_helloworld\Debug/../src/bsp/driver/riscv_mc/timer.c:82
	}
	else{
		GPIO->WR_DATA_REG = 0x00;
	}

}
     f94:	a031                	j	fa0 <timer_isr+0x74>
C:\Users\x-luo\proj\hw4\SW\riscv_mc_helloworld\Debug/../src/bsp/driver/riscv_mc/timer.c:79
		GPIO->WR_DATA_REG = 0x00;
     f96:	67a1                	lui	a5,0x8
     f98:	40078793          	addi	a5,a5,1024 # 8400 <_stack_start+0x49d0>
     f9c:	0007a223          	sw	zero,4(a5)
C:\Users\x-luo\proj\hw4\SW\riscv_mc_helloworld\Debug/../src/bsp/driver/riscv_mc/timer.c:82
}
     fa0:	0001                	nop
     fa2:	50b2                	lw	ra,44(sp)
     fa4:	5422                	lw	s0,40(sp)
     fa6:	6145                	addi	sp,sp,48
     fa8:	8082                	ret

00000faa <timer_init>:
timer_init():
C:\Users\x-luo\proj\hw4\SW\riscv_mc_helloworld\Debug/../src/bsp/driver/riscv_mc/timer.c:86

unsigned char timer_init(struct timer_instance *this_timer,
			 unsigned int base_addr, unsigned int cpu_freq)
{
     faa:	7179                	addi	sp,sp,-48
     fac:	d606                	sw	ra,44(sp)
     fae:	d422                	sw	s0,40(sp)
     fb0:	1800                	addi	s0,sp,48
     fb2:	fca42e23          	sw	a0,-36(s0)
     fb6:	fcb42c23          	sw	a1,-40(s0)
     fba:	fcc42a23          	sw	a2,-44(s0)
C:\Users\x-luo\proj\hw4\SW\riscv_mc_helloworld\Debug/../src/bsp/driver/riscv_mc/timer.c:87
	unsigned long long int tmp = 1;
     fbe:	4705                	li	a4,1
     fc0:	4781                	li	a5,0
     fc2:	fee42423          	sw	a4,-24(s0)
     fc6:	fef42623          	sw	a5,-20(s0)
C:\Users\x-luo\proj\hw4\SW\riscv_mc_helloworld\Debug/../src/bsp/driver/riscv_mc/timer.c:88
	if (NULL == this_timer) {
     fca:	fdc42783          	lw	a5,-36(s0)
     fce:	e399                	bnez	a5,fd4 <timer_init+0x2a>
C:\Users\x-luo\proj\hw4\SW\riscv_mc_helloworld\Debug/../src/bsp/driver/riscv_mc/timer.c:89
		return 1;
     fd0:	4785                	li	a5,1
     fd2:	a01d                	j	ff8 <timer_init+0x4e>
C:\Users\x-luo\proj\hw4\SW\riscv_mc_helloworld\Debug/../src/bsp/driver/riscv_mc/timer.c:91
	}
	this_timer->base_address = base_addr;
     fd4:	fdc42783          	lw	a5,-36(s0)
     fd8:	fd842703          	lw	a4,-40(s0)
     fdc:	c398                	sw	a4,0(a5)
C:\Users\x-luo\proj\hw4\SW\riscv_mc_helloworld\Debug/../src/bsp/driver/riscv_mc/timer.c:92
	this_timer->cpu_freq = cpu_freq;
     fde:	fdc42783          	lw	a5,-36(s0)
     fe2:	fd442703          	lw	a4,-44(s0)
     fe6:	c3d8                	sw	a4,4(a5)
C:\Users\x-luo\proj\hw4\SW\riscv_mc_helloworld\Debug/../src/bsp/driver/riscv_mc/timer.c:93
	timer_set_mtime(this_timer, tmp);
     fe8:	fe842583          	lw	a1,-24(s0)
     fec:	fec42603          	lw	a2,-20(s0)
     ff0:	fdc42503          	lw	a0,-36(s0)
     ff4:	206d                	jal	109e <timer_set_mtime>
C:\Users\x-luo\proj\hw4\SW\riscv_mc_helloworld\Debug/../src/bsp/driver/riscv_mc/timer.c:94
	return 0;
     ff6:	4781                	li	a5,0
C:\Users\x-luo\proj\hw4\SW\riscv_mc_helloworld\Debug/../src/bsp/driver/riscv_mc/timer.c:95
}
     ff8:	853e                	mv	a0,a5
     ffa:	50b2                	lw	ra,44(sp)
     ffc:	5422                	lw	s0,40(sp)
     ffe:	6145                	addi	sp,sp,48
    1000:	8082                	ret

00001002 <timer_start>:
timer_start():
C:\Users\x-luo\proj\hw4\SW\riscv_mc_helloworld\Debug/../src/bsp/driver/riscv_mc/timer.c:101

unsigned char timer_start(struct timer_instance *this_timer,
			  void (*callback) (void *), void *userCtx,
			  unsigned int periodic,    // true/false, !0, timer will continue, 0 only 1 shot
			  unsigned int count)  		// after count ms, will trigger interrupt, perio
{
    1002:	7139                	addi	sp,sp,-64
    1004:	de06                	sw	ra,60(sp)
    1006:	dc22                	sw	s0,56(sp)
    1008:	0080                	addi	s0,sp,64
    100a:	fca42e23          	sw	a0,-36(s0)
    100e:	fcb42c23          	sw	a1,-40(s0)
    1012:	fcc42a23          	sw	a2,-44(s0)
    1016:	fcd42823          	sw	a3,-48(s0)
    101a:	fce42623          	sw	a4,-52(s0)
C:\Users\x-luo\proj\hw4\SW\riscv_mc_helloworld\Debug/../src/bsp/driver/riscv_mc/timer.c:105
	unsigned int val;
	/* Check initial condition */
	unsigned int mie;
	if (NULL == this_timer) {
    101e:	fdc42783          	lw	a5,-36(s0)
    1022:	e399                	bnez	a5,1028 <timer_start+0x26>
C:\Users\x-luo\proj\hw4\SW\riscv_mc_helloworld\Debug/../src/bsp/driver/riscv_mc/timer.c:106
		return 1;
    1024:	4785                	li	a5,1
    1026:	a0bd                	j	1094 <timer_start+0x92>
C:\Users\x-luo\proj\hw4\SW\riscv_mc_helloworld\Debug/../src/bsp/driver/riscv_mc/timer.c:108
	}
	this_timer->periodic = periodic;
    1028:	fd042783          	lw	a5,-48(s0)
    102c:	0ff7f713          	zext.b	a4,a5
    1030:	fdc42783          	lw	a5,-36(s0)
    1034:	00e78623          	sb	a4,12(a5)
C:\Users\x-luo\proj\hw4\SW\riscv_mc_helloworld\Debug/../src/bsp/driver/riscv_mc/timer.c:109
	this_timer->callback = callback;
    1038:	fdc42783          	lw	a5,-36(s0)
    103c:	fd842703          	lw	a4,-40(s0)
    1040:	cb98                	sw	a4,16(a5)
C:\Users\x-luo\proj\hw4\SW\riscv_mc_helloworld\Debug/../src/bsp/driver/riscv_mc/timer.c:110
	this_timer->userCtx = userCtx;
    1042:	fdc42783          	lw	a5,-36(s0)
    1046:	fd442703          	lw	a4,-44(s0)
    104a:	cbd8                	sw	a4,20(a5)
C:\Users\x-luo\proj\hw4\SW\riscv_mc_helloworld\Debug/../src/bsp/driver/riscv_mc/timer.c:112

	int_table[S_INT_TIMER].isr = timer_isr;
    104c:	8ac18793          	addi	a5,gp,-1876 # 2e20 <int_table>
    1050:	6705                	lui	a4,0x1
    1052:	f2c70713          	addi	a4,a4,-212 # f2c <timer_isr>
    1056:	c3b8                	sw	a4,64(a5)
C:\Users\x-luo\proj\hw4\SW\riscv_mc_helloworld\Debug/../src/bsp/driver/riscv_mc/timer.c:113
	int_table[S_INT_TIMER].context = this_timer;
    1058:	8ac18793          	addi	a5,gp,-1876 # 2e20 <int_table>
    105c:	fdc42703          	lw	a4,-36(s0)
    1060:	c3f8                	sw	a4,68(a5)
C:\Users\x-luo\proj\hw4\SW\riscv_mc_helloworld\Debug/../src/bsp/driver/riscv_mc/timer.c:115

	this_timer->delay = count;
    1062:	fdc42783          	lw	a5,-36(s0)
    1066:	fcc42703          	lw	a4,-52(s0)
    106a:	c798                	sw	a4,8(a5)
C:\Users\x-luo\proj\hw4\SW\riscv_mc_helloworld\Debug/../src/bsp/driver/riscv_mc/timer.c:116
	timer_reload(this_timer, count);
    106c:	fcc42583          	lw	a1,-52(s0)
    1070:	fdc42503          	lw	a0,-36(s0)
    1074:	2269                	jal	11fe <timer_reload>
C:\Users\x-luo\proj\hw4\SW\riscv_mc_helloworld\Debug/../src/bsp/driver/riscv_mc/timer.c:119
	/* Enable interrupt */
	//__asm__ __volatile__("csrsi mie, 8");
	__asm__ __volatile__("csrr  %0, mie":"=r"(mie));
    1076:	304027f3          	csrr	a5,mie
    107a:	fef42623          	sw	a5,-20(s0)
C:\Users\x-luo\proj\hw4\SW\riscv_mc_helloworld\Debug/../src/bsp/driver/riscv_mc/timer.c:120
	mie = mie | 0x80;
    107e:	fec42783          	lw	a5,-20(s0)
    1082:	0807e793          	ori	a5,a5,128
    1086:	fef42623          	sw	a5,-20(s0)
C:\Users\x-luo\proj\hw4\SW\riscv_mc_helloworld\Debug/../src/bsp/driver/riscv_mc/timer.c:121
	__asm__ __volatile__("csrw mie, %0"::"r"(mie));
    108a:	fec42783          	lw	a5,-20(s0)
    108e:	30479073          	csrw	mie,a5
C:\Users\x-luo\proj\hw4\SW\riscv_mc_helloworld\Debug/../src/bsp/driver/riscv_mc/timer.c:123

	return 0;
    1092:	4781                	li	a5,0
C:\Users\x-luo\proj\hw4\SW\riscv_mc_helloworld\Debug/../src/bsp/driver/riscv_mc/timer.c:124
}
    1094:	853e                	mv	a0,a5
    1096:	50f2                	lw	ra,60(sp)
    1098:	5462                	lw	s0,56(sp)
    109a:	6121                	addi	sp,sp,64
    109c:	8082                	ret

0000109e <timer_set_mtime>:
timer_set_mtime():
C:\Users\x-luo\proj\hw4\SW\riscv_mc_helloworld\Debug/../src/bsp/driver/riscv_mc/timer.c:159
	return 0;
}

unsigned char timer_set_mtime(struct timer_instance *this_timer,
			      unsigned long long int value)
{
    109e:	7179                	addi	sp,sp,-48
    10a0:	d606                	sw	ra,44(sp)
    10a2:	d422                	sw	s0,40(sp)
    10a4:	1800                	addi	s0,sp,48
    10a6:	fca42e23          	sw	a0,-36(s0)
    10aa:	fcb42823          	sw	a1,-48(s0)
    10ae:	fcc42a23          	sw	a2,-44(s0)
C:\Users\x-luo\proj\hw4\SW\riscv_mc_helloworld\Debug/../src/bsp/driver/riscv_mc/timer.c:163

	unsigned int mtime_lo;
	unsigned int mtime_hi;
	if (NULL == this_timer) {
    10b2:	fdc42683          	lw	a3,-36(s0)
    10b6:	e299                	bnez	a3,10bc <timer_set_mtime+0x1e>
C:\Users\x-luo\proj\hw4\SW\riscv_mc_helloworld\Debug/../src/bsp/driver/riscv_mc/timer.c:164
		return 1;
    10b8:	4785                	li	a5,1
    10ba:	a83d                	j	10f8 <timer_set_mtime+0x5a>
C:\Users\x-luo\proj\hw4\SW\riscv_mc_helloworld\Debug/../src/bsp/driver/riscv_mc/timer.c:166
	}
	mtime_hi = (value >> 32) & 0xffffffff;
    10bc:	fd442683          	lw	a3,-44(s0)
    10c0:	0006d713          	srli	a4,a3,0x0
    10c4:	4781                	li	a5,0
    10c6:	fee42623          	sw	a4,-20(s0)
C:\Users\x-luo\proj\hw4\SW\riscv_mc_helloworld\Debug/../src/bsp/driver/riscv_mc/timer.c:167
	mtime_lo = value & 0xffffffff;
    10ca:	fd042783          	lw	a5,-48(s0)
    10ce:	fef42423          	sw	a5,-24(s0)
C:\Users\x-luo\proj\hw4\SW\riscv_mc_helloworld\Debug/../src/bsp/driver/riscv_mc/timer.c:168
	reg_32b_write(this_timer->base_address | TIMER_MTIME_LOW,
    10d2:	fdc42783          	lw	a5,-36(s0)
    10d6:	439c                	lw	a5,0(a5)
    10d8:	4007e793          	ori	a5,a5,1024
    10dc:	fe842583          	lw	a1,-24(s0)
    10e0:	853e                	mv	a0,a5
    10e2:	3bd5                	jal	ed6 <reg_32b_write>
C:\Users\x-luo\proj\hw4\SW\riscv_mc_helloworld\Debug/../src/bsp/driver/riscv_mc/timer.c:170
		      mtime_lo);
	reg_32b_write(this_timer->base_address | TIMER_MTIME_HIGH,
    10e4:	fdc42783          	lw	a5,-36(s0)
    10e8:	439c                	lw	a5,0(a5)
    10ea:	4047e793          	ori	a5,a5,1028
    10ee:	fec42583          	lw	a1,-20(s0)
    10f2:	853e                	mv	a0,a5
    10f4:	33cd                	jal	ed6 <reg_32b_write>
C:\Users\x-luo\proj\hw4\SW\riscv_mc_helloworld\Debug/../src/bsp/driver/riscv_mc/timer.c:173
		      mtime_hi);

	return 0;
    10f6:	4781                	li	a5,0
C:\Users\x-luo\proj\hw4\SW\riscv_mc_helloworld\Debug/../src/bsp/driver/riscv_mc/timer.c:174
}
    10f8:	853e                	mv	a0,a5
    10fa:	50b2                	lw	ra,44(sp)
    10fc:	5422                	lw	s0,40(sp)
    10fe:	6145                	addi	sp,sp,48
    1100:	8082                	ret

00001102 <timer_get_mtimecmp>:
timer_get_mtimecmp():
C:\Users\x-luo\proj\hw4\SW\riscv_mc_helloworld\Debug/../src/bsp/driver/riscv_mc/timer.c:178

unsigned char timer_get_mtimecmp(struct timer_instance *this_timer,
				 unsigned long long int *value)
{
    1102:	715d                	addi	sp,sp,-80
    1104:	c686                	sw	ra,76(sp)
    1106:	c4a2                	sw	s0,72(sp)
    1108:	c2ca                	sw	s2,68(sp)
    110a:	c0ce                	sw	s3,64(sp)
    110c:	de52                	sw	s4,60(sp)
    110e:	dc56                	sw	s5,56(sp)
    1110:	da5a                	sw	s6,52(sp)
    1112:	d85e                	sw	s7,48(sp)
    1114:	d662                	sw	s8,44(sp)
    1116:	d466                	sw	s9,40(sp)
    1118:	0880                	addi	s0,sp,80
    111a:	faa42e23          	sw	a0,-68(s0)
    111e:	fab42c23          	sw	a1,-72(s0)
C:\Users\x-luo\proj\hw4\SW\riscv_mc_helloworld\Debug/../src/bsp/driver/riscv_mc/timer.c:181
	unsigned int mtimecmp_lo;
	unsigned int mtimecmp_hi;
	if (NULL == this_timer) {
    1122:	fbc42783          	lw	a5,-68(s0)
    1126:	e399                	bnez	a5,112c <timer_get_mtimecmp+0x2a>
C:\Users\x-luo\proj\hw4\SW\riscv_mc_helloworld\Debug/../src/bsp/driver/riscv_mc/timer.c:182
		return 1;
    1128:	4785                	li	a5,1
    112a:	a899                	j	1180 <timer_get_mtimecmp+0x7e>
C:\Users\x-luo\proj\hw4\SW\riscv_mc_helloworld\Debug/../src/bsp/driver/riscv_mc/timer.c:184
	}
	reg_32b_read(this_timer->base_address | TIMER_MTIMECMP_LOW,
    112c:	fbc42783          	lw	a5,-68(s0)
    1130:	439c                	lw	a5,0(a5)
    1132:	4107e793          	ori	a5,a5,1040
    1136:	fcc40713          	addi	a4,s0,-52
    113a:	85ba                	mv	a1,a4
    113c:	853e                	mv	a0,a5
    113e:	33c9                	jal	f00 <reg_32b_read>
C:\Users\x-luo\proj\hw4\SW\riscv_mc_helloworld\Debug/../src/bsp/driver/riscv_mc/timer.c:186
		     &mtimecmp_lo);
	reg_32b_read(this_timer->base_address | TIMER_MTIMECMP_HIGH,
    1140:	fbc42783          	lw	a5,-68(s0)
    1144:	439c                	lw	a5,0(a5)
    1146:	4147e793          	ori	a5,a5,1044
    114a:	fc840713          	addi	a4,s0,-56
    114e:	85ba                	mv	a1,a4
    1150:	853e                	mv	a0,a5
    1152:	337d                	jal	f00 <reg_32b_read>
C:\Users\x-luo\proj\hw4\SW\riscv_mc_helloworld\Debug/../src/bsp/driver/riscv_mc/timer.c:190
		     &mtimecmp_hi);

	*value =
	    ((unsigned long long int) mtimecmp_hi << 32) | mtimecmp_lo;
    1154:	fc842783          	lw	a5,-56(s0)
    1158:	8c3e                	mv	s8,a5
    115a:	4c81                	li	s9,0
    115c:	000c1993          	slli	s3,s8,0x0
    1160:	4901                	li	s2,0
    1162:	fcc42783          	lw	a5,-52(s0)
    1166:	8a3e                	mv	s4,a5
    1168:	4a81                	li	s5,0
    116a:	01496b33          	or	s6,s2,s4
    116e:	0159ebb3          	or	s7,s3,s5
C:\Users\x-luo\proj\hw4\SW\riscv_mc_helloworld\Debug/../src/bsp/driver/riscv_mc/timer.c:189
	*value =
    1172:	fb842783          	lw	a5,-72(s0)
    1176:	0167a023          	sw	s6,0(a5)
    117a:	0177a223          	sw	s7,4(a5)
C:\Users\x-luo\proj\hw4\SW\riscv_mc_helloworld\Debug/../src/bsp/driver/riscv_mc/timer.c:192

	return 0;
    117e:	4781                	li	a5,0
C:\Users\x-luo\proj\hw4\SW\riscv_mc_helloworld\Debug/../src/bsp/driver/riscv_mc/timer.c:193 (discriminator 1)
}
    1180:	853e                	mv	a0,a5
    1182:	40b6                	lw	ra,76(sp)
    1184:	4426                	lw	s0,72(sp)
    1186:	4916                	lw	s2,68(sp)
    1188:	4986                	lw	s3,64(sp)
    118a:	5a72                	lw	s4,60(sp)
    118c:	5ae2                	lw	s5,56(sp)
    118e:	5b52                	lw	s6,52(sp)
    1190:	5bc2                	lw	s7,48(sp)
    1192:	5c32                	lw	s8,44(sp)
    1194:	5ca2                	lw	s9,40(sp)
    1196:	6161                	addi	sp,sp,80
    1198:	8082                	ret

0000119a <timer_set_mtimecmp>:
timer_set_mtimecmp():
C:\Users\x-luo\proj\hw4\SW\riscv_mc_helloworld\Debug/../src/bsp/driver/riscv_mc/timer.c:197

unsigned char timer_set_mtimecmp(struct timer_instance *this_timer,
				 unsigned long long int value)
{
    119a:	7179                	addi	sp,sp,-48
    119c:	d606                	sw	ra,44(sp)
    119e:	d422                	sw	s0,40(sp)
    11a0:	1800                	addi	s0,sp,48
    11a2:	fca42e23          	sw	a0,-36(s0)
    11a6:	fcb42823          	sw	a1,-48(s0)
    11aa:	fcc42a23          	sw	a2,-44(s0)
C:\Users\x-luo\proj\hw4\SW\riscv_mc_helloworld\Debug/../src/bsp/driver/riscv_mc/timer.c:201

	unsigned int mtimecmp_lo;
	unsigned int mtimecmp_hi;
	if (NULL == this_timer) {
    11ae:	fdc42683          	lw	a3,-36(s0)
    11b2:	e299                	bnez	a3,11b8 <timer_set_mtimecmp+0x1e>
C:\Users\x-luo\proj\hw4\SW\riscv_mc_helloworld\Debug/../src/bsp/driver/riscv_mc/timer.c:202
		return 1;
    11b4:	4785                	li	a5,1
    11b6:	a83d                	j	11f4 <timer_set_mtimecmp+0x5a>
C:\Users\x-luo\proj\hw4\SW\riscv_mc_helloworld\Debug/../src/bsp/driver/riscv_mc/timer.c:204
	}
	mtimecmp_hi = (value >> 32) & 0xffffffff;
    11b8:	fd442683          	lw	a3,-44(s0)
    11bc:	0006d713          	srli	a4,a3,0x0
    11c0:	4781                	li	a5,0
    11c2:	fee42623          	sw	a4,-20(s0)
C:\Users\x-luo\proj\hw4\SW\riscv_mc_helloworld\Debug/../src/bsp/driver/riscv_mc/timer.c:205
	mtimecmp_lo = value & 0xffffffff;
    11c6:	fd042783          	lw	a5,-48(s0)
    11ca:	fef42423          	sw	a5,-24(s0)
C:\Users\x-luo\proj\hw4\SW\riscv_mc_helloworld\Debug/../src/bsp/driver/riscv_mc/timer.c:206
	reg_32b_write(this_timer->base_address | TIMER_MTIMECMP_LOW,
    11ce:	fdc42783          	lw	a5,-36(s0)
    11d2:	439c                	lw	a5,0(a5)
    11d4:	4107e793          	ori	a5,a5,1040
    11d8:	fe842583          	lw	a1,-24(s0)
    11dc:	853e                	mv	a0,a5
    11de:	39e5                	jal	ed6 <reg_32b_write>
C:\Users\x-luo\proj\hw4\SW\riscv_mc_helloworld\Debug/../src/bsp/driver/riscv_mc/timer.c:208
		      mtimecmp_lo);
	reg_32b_write(this_timer->base_address | TIMER_MTIMECMP_HIGH,
    11e0:	fdc42783          	lw	a5,-36(s0)
    11e4:	439c                	lw	a5,0(a5)
    11e6:	4147e793          	ori	a5,a5,1044
    11ea:	fec42583          	lw	a1,-20(s0)
    11ee:	853e                	mv	a0,a5
    11f0:	31dd                	jal	ed6 <reg_32b_write>
C:\Users\x-luo\proj\hw4\SW\riscv_mc_helloworld\Debug/../src/bsp/driver/riscv_mc/timer.c:211
		      mtimecmp_hi);

	return 0;
    11f2:	4781                	li	a5,0
C:\Users\x-luo\proj\hw4\SW\riscv_mc_helloworld\Debug/../src/bsp/driver/riscv_mc/timer.c:212
}
    11f4:	853e                	mv	a0,a5
    11f6:	50b2                	lw	ra,44(sp)
    11f8:	5422                	lw	s0,40(sp)
    11fa:	6145                	addi	sp,sp,48
    11fc:	8082                	ret

000011fe <timer_reload>:
timer_reload():
C:\Users\x-luo\proj\hw4\SW\riscv_mc_helloworld\Debug/../src/bsp/driver/riscv_mc/timer.c:216

unsigned char timer_reload(struct timer_instance *this_timer,
			   unsigned int delay)
{
    11fe:	7179                	addi	sp,sp,-48
    1200:	d606                	sw	ra,44(sp)
    1202:	d422                	sw	s0,40(sp)
    1204:	d24a                	sw	s2,36(sp)
    1206:	d04e                	sw	s3,32(sp)
    1208:	1800                	addi	s0,sp,48
    120a:	fca42e23          	sw	a0,-36(s0)
    120e:	fcb42c23          	sw	a1,-40(s0)
C:\Users\x-luo\proj\hw4\SW\riscv_mc_helloworld\Debug/../src/bsp/driver/riscv_mc/timer.c:218
	unsigned long long int tmp;
	if (NULL == this_timer) {
    1212:	fdc42783          	lw	a5,-36(s0)
    1216:	e399                	bnez	a5,121c <timer_reload+0x1e>
C:\Users\x-luo\proj\hw4\SW\riscv_mc_helloworld\Debug/../src/bsp/driver/riscv_mc/timer.c:219
		return 1;
    1218:	4785                	li	a5,1
    121a:	a085                	j	127a <timer_reload+0x7c>
C:\Users\x-luo\proj\hw4\SW\riscv_mc_helloworld\Debug/../src/bsp/driver/riscv_mc/timer.c:221
	}
	timer_get_mtimecmp(this_timer, &tmp);
    121c:	fe840793          	addi	a5,s0,-24
    1220:	85be                	mv	a1,a5
    1222:	fdc42503          	lw	a0,-36(s0)
    1226:	3df1                	jal	1102 <timer_get_mtimecmp>
C:\Users\x-luo\proj\hw4\SW\riscv_mc_helloworld\Debug/../src/bsp/driver/riscv_mc/timer.c:223
	// 1ms * delay
	tmp += (this_timer->cpu_freq / 1000) * delay;
    1228:	fdc42783          	lw	a5,-36(s0)
    122c:	43d8                	lw	a4,4(a5)
    122e:	3e800793          	li	a5,1000
    1232:	02f75733          	divu	a4,a4,a5
    1236:	fd842783          	lw	a5,-40(s0)
    123a:	02f707b3          	mul	a5,a4,a5
    123e:	893e                	mv	s2,a5
    1240:	4981                	li	s3,0
    1242:	fe842603          	lw	a2,-24(s0)
    1246:	fec42683          	lw	a3,-20(s0)
    124a:	00c90733          	add	a4,s2,a2
    124e:	85ba                	mv	a1,a4
    1250:	0125b5b3          	sltu	a1,a1,s2
    1254:	00d987b3          	add	a5,s3,a3
    1258:	00f586b3          	add	a3,a1,a5
    125c:	87b6                	mv	a5,a3
    125e:	fee42423          	sw	a4,-24(s0)
    1262:	fef42623          	sw	a5,-20(s0)
C:\Users\x-luo\proj\hw4\SW\riscv_mc_helloworld\Debug/../src/bsp/driver/riscv_mc/timer.c:224
	timer_set_mtimecmp(this_timer, tmp);
    1266:	fe842703          	lw	a4,-24(s0)
    126a:	fec42783          	lw	a5,-20(s0)
    126e:	85ba                	mv	a1,a4
    1270:	863e                	mv	a2,a5
    1272:	fdc42503          	lw	a0,-36(s0)
    1276:	3715                	jal	119a <timer_set_mtimecmp>
C:\Users\x-luo\proj\hw4\SW\riscv_mc_helloworld\Debug/../src/bsp/driver/riscv_mc/timer.c:226

	return 0;
    1278:	4781                	li	a5,0
C:\Users\x-luo\proj\hw4\SW\riscv_mc_helloworld\Debug/../src/bsp/driver/riscv_mc/timer.c:227 (discriminator 1)
}
    127a:	853e                	mv	a0,a5
    127c:	50b2                	lw	ra,44(sp)
    127e:	5422                	lw	s0,40(sp)
    1280:	5912                	lw	s2,36(sp)
    1282:	5982                	lw	s3,32(sp)
    1284:	6145                	addi	sp,sp,48
    1286:	8082                	ret

00001288 <timer_test>:
timer_test():
C:\Users\x-luo\proj\hw4\SW\riscv_mc_helloworld\Debug/../src/bsp/driver/riscv_mc/timer.c:237
 * fot test
 */


extern struct timer_instance m_timer;
void timer_test(){
    1288:	1141                	addi	sp,sp,-16
    128a:	c606                	sw	ra,12(sp)
    128c:	c422                	sw	s0,8(sp)
    128e:	0800                	addi	s0,sp,16
C:\Users\x-luo\proj\hw4\SW\riscv_mc_helloworld\Debug/../src/bsp/driver/riscv_mc/timer.c:238
	timer_init( &m_timer, CPU0_INST_BASE_ADDR, 100000000 );
    1290:	05f5e7b7          	lui	a5,0x5f5e
    1294:	10078613          	addi	a2,a5,256 # 5f5e100 <_stack_start+0x5f5a6d0>
    1298:	75c1                	lui	a1,0xffff0
    129a:	8f418513          	addi	a0,gp,-1804 # 2e68 <m_timer>
    129e:	3331                	jal	faa <timer_init>
C:\Users\x-luo\proj\hw4\SW\riscv_mc_helloworld\Debug/../src/bsp/driver/riscv_mc/timer.c:239
	timer_start( &m_timer,
    12a0:	3e800713          	li	a4,1000
    12a4:	4685                	li	a3,1
    12a6:	4601                	li	a2,0
    12a8:	4581                	li	a1,0
    12aa:	8f418513          	addi	a0,gp,-1804 # 2e68 <m_timer>
    12ae:	3b91                	jal	1002 <timer_start>
C:\Users\x-luo\proj\hw4\SW\riscv_mc_helloworld\Debug/../src/bsp/driver/riscv_mc/timer.c:242
				 NULL, NULL,
				 1, 1000);
}
    12b0:	0001                	nop
    12b2:	40b2                	lw	ra,12(sp)
    12b4:	4422                	lw	s0,8(sp)
    12b6:	0141                	addi	sp,sp,16
    12b8:	8082                	ret

000012ba <gpio_init>:
gpio_init():
C:\Users\x-luo\proj\hw4\SW\riscv_mc_helloworld\Debug/../src/bsp/driver/gpio/gpio.c:60
#include <stddef.h>

unsigned char gpio_init(struct gpio_instance *this_gpio,
			unsigned int base_addr,
			unsigned int lines_num, unsigned int gpio_dirs)
{
    12ba:	7179                	addi	sp,sp,-48
    12bc:	d622                	sw	s0,44(sp)
    12be:	1800                	addi	s0,sp,48
    12c0:	fca42e23          	sw	a0,-36(s0)
    12c4:	fcb42c23          	sw	a1,-40(s0)
    12c8:	fcc42a23          	sw	a2,-44(s0)
    12cc:	fcd42823          	sw	a3,-48(s0)
C:\Users\x-luo\proj\hw4\SW\riscv_mc_helloworld\Debug/../src/bsp/driver/gpio/gpio.c:61
	unsigned int index = 0;
    12d0:	fe042623          	sw	zero,-20(s0)
C:\Users\x-luo\proj\hw4\SW\riscv_mc_helloworld\Debug/../src/bsp/driver/gpio/gpio.c:62
	if (NULL == this_gpio) {
    12d4:	fdc42783          	lw	a5,-36(s0)
    12d8:	e399                	bnez	a5,12de <gpio_init+0x24>
C:\Users\x-luo\proj\hw4\SW\riscv_mc_helloworld\Debug/../src/bsp/driver/gpio/gpio.c:63
		return 1;
    12da:	4785                	li	a5,1
    12dc:	a8ad                	j	1356 <gpio_init+0x9c>
C:\Users\x-luo\proj\hw4\SW\riscv_mc_helloworld\Debug/../src/bsp/driver/gpio/gpio.c:65
	}
	this_gpio->base_address = base_addr;
    12de:	fdc42783          	lw	a5,-36(s0)
    12e2:	fd842703          	lw	a4,-40(s0)
    12e6:	c3d8                	sw	a4,4(a5)
C:\Users\x-luo\proj\hw4\SW\riscv_mc_helloworld\Debug/../src/bsp/driver/gpio/gpio.c:67

	for (index = 0; index < lines_num; index++) {
    12e8:	fe042623          	sw	zero,-20(s0)
    12ec:	a8b1                	j	1348 <gpio_init+0x8e>
C:\Users\x-luo\proj\hw4\SW\riscv_mc_helloworld\Debug/../src/bsp/driver/gpio/gpio.c:68
		this_gpio->gpio_config[index].pin = 0x01 << index;
    12ee:	fec42783          	lw	a5,-20(s0)
    12f2:	4705                	li	a4,1
    12f4:	00f717b3          	sll	a5,a4,a5
    12f8:	86be                	mv	a3,a5
    12fa:	fdc42703          	lw	a4,-36(s0)
    12fe:	fec42783          	lw	a5,-20(s0)
    1302:	078e                	slli	a5,a5,0x3
    1304:	97ba                	add	a5,a5,a4
    1306:	c794                	sw	a3,8(a5)
C:\Users\x-luo\proj\hw4\SW\riscv_mc_helloworld\Debug/../src/bsp/driver/gpio/gpio.c:69
		if (gpio_dirs & (0x01 << index)) {
    1308:	fec42783          	lw	a5,-20(s0)
    130c:	4705                	li	a4,1
    130e:	00f717b3          	sll	a5,a4,a5
    1312:	873e                	mv	a4,a5
    1314:	fd042783          	lw	a5,-48(s0)
    1318:	8ff9                	and	a5,a5,a4
    131a:	cb91                	beqz	a5,132e <gpio_init+0x74>
C:\Users\x-luo\proj\hw4\SW\riscv_mc_helloworld\Debug/../src/bsp/driver/gpio/gpio.c:70
			this_gpio->gpio_config[index].direction =
    131c:	fdc42703          	lw	a4,-36(s0)
    1320:	fec42783          	lw	a5,-20(s0)
    1324:	078e                	slli	a5,a5,0x3
    1326:	97ba                	add	a5,a5,a4
    1328:	4705                	li	a4,1
    132a:	c7d8                	sw	a4,12(a5)
    132c:	a809                	j	133e <gpio_init+0x84>
C:\Users\x-luo\proj\hw4\SW\riscv_mc_helloworld\Debug/../src/bsp/driver/gpio/gpio.c:73
			    GPIO_OUTPUT;
		} else {
			this_gpio->gpio_config[index].direction =
    132e:	fdc42703          	lw	a4,-36(s0)
    1332:	fec42783          	lw	a5,-20(s0)
    1336:	078e                	slli	a5,a5,0x3
    1338:	97ba                	add	a5,a5,a4
    133a:	0007a623          	sw	zero,12(a5)
C:\Users\x-luo\proj\hw4\SW\riscv_mc_helloworld\Debug/../src/bsp/driver/gpio/gpio.c:67 (discriminator 2)
	for (index = 0; index < lines_num; index++) {
    133e:	fec42783          	lw	a5,-20(s0)
    1342:	0785                	addi	a5,a5,1
    1344:	fef42623          	sw	a5,-20(s0)
C:\Users\x-luo\proj\hw4\SW\riscv_mc_helloworld\Debug/../src/bsp/driver/gpio/gpio.c:67 (discriminator 1)
    1348:	fec42703          	lw	a4,-20(s0)
    134c:	fd442783          	lw	a5,-44(s0)
    1350:	f8f76fe3          	bltu	a4,a5,12ee <gpio_init+0x34>
C:\Users\x-luo\proj\hw4\SW\riscv_mc_helloworld\Debug/../src/bsp/driver/gpio/gpio.c:77
			    GPIO_INPUT;
		}
	}
	return 0;
    1354:	4781                	li	a5,0
C:\Users\x-luo\proj\hw4\SW\riscv_mc_helloworld\Debug/../src/bsp/driver/gpio/gpio.c:78
}
    1356:	853e                	mv	a0,a5
    1358:	5432                	lw	s0,44(sp)
    135a:	6145                	addi	sp,sp,48
    135c:	8082                	ret

0000135e <adc128_read_rtd>:
adc128_read_rtd():
C:\Users\x-luo\proj\hw4\SW\riscv_mc_helloworld\Debug/../src/RTD/adc128.c:17

/*
 * there are 32 channel Max.
 */

int adc128_read_rtd(int channel, unsigned short* rx_buf ){
    135e:	7179                	addi	sp,sp,-48
    1360:	d606                	sw	ra,44(sp)
    1362:	d422                	sw	s0,40(sp)
    1364:	1800                	addi	s0,sp,48
    1366:	fca42e23          	sw	a0,-36(s0)
    136a:	fcb42c23          	sw	a1,-40(s0)
C:\Users\x-luo\proj\hw4\SW\riscv_mc_helloworld\Debug/../src/RTD/adc128.c:18
	ASSERT(channel<32); // valid 0--31, corespons to 32 RTDs
    136e:	fdc42703          	lw	a4,-36(s0)
    1372:	47fd                	li	a5,31
    1374:	00e7d863          	bge	a5,a4,1384 <adc128_read_rtd+0x26>
C:\Users\x-luo\proj\hw4\SW\riscv_mc_helloworld\Debug/../src/RTD/adc128.c:18 (discriminator 1)
    1378:	678d                	lui	a5,0x3
    137a:	8c078513          	addi	a0,a5,-1856 # 28c0 <__iob+0xc>
    137e:	6f6000ef          	jal	ra,1a74 <puts>
    1382:	a001                	j	1382 <adc128_read_rtd+0x24>
C:\Users\x-luo\proj\hw4\SW\riscv_mc_helloworld\Debug/../src/RTD/adc128.c:20
	//each ADC128 red 8 channels, assume RTD is on channel 0,1,2,3
	int chip_select = channel/8;
    1384:	fdc42783          	lw	a5,-36(s0)
    1388:	41f7d713          	srai	a4,a5,0x1f
    138c:	8b1d                	andi	a4,a4,7
    138e:	97ba                	add	a5,a5,a4
    1390:	878d                	srai	a5,a5,0x3
    1392:	fef42623          	sw	a5,-20(s0)
C:\Users\x-luo\proj\hw4\SW\riscv_mc_helloworld\Debug/../src/RTD/adc128.c:21
	SPI->CHP_SEL_REG = 1 << chip_select;
    1396:	fec42783          	lw	a5,-20(s0)
    139a:	4705                	li	a4,1
    139c:	00f71733          	sll	a4,a4,a5
    13a0:	67a5                	lui	a5,0x9
    13a2:	80078793          	addi	a5,a5,-2048 # 8800 <_stack_start+0x4dd0>
    13a6:	c3d8                	sw	a4,4(a5)
C:\Users\x-luo\proj\hw4\SW\riscv_mc_helloworld\Debug/../src/RTD/adc128.c:23

	int channel_in_chip = channel%8;
    13a8:	fdc42703          	lw	a4,-36(s0)
    13ac:	41f75793          	srai	a5,a4,0x1f
    13b0:	83f5                	srli	a5,a5,0x1d
    13b2:	973e                	add	a4,a4,a5
    13b4:	8b1d                	andi	a4,a4,7
    13b6:	40f707b3          	sub	a5,a4,a5
    13ba:	fef42423          	sw	a5,-24(s0)
C:\Users\x-luo\proj\hw4\SW\riscv_mc_helloworld\Debug/../src/RTD/adc128.c:24
	uint16_t slave_addr = channel_in_chip << 11;	  //spi slave address
    13be:	fe842783          	lw	a5,-24(s0)
    13c2:	07c2                	slli	a5,a5,0x10
    13c4:	83c1                	srli	a5,a5,0x10
    13c6:	07ae                	slli	a5,a5,0xb
    13c8:	fef41323          	sh	a5,-26(s0)
C:\Users\x-luo\proj\hw4\SW\riscv_mc_helloworld\Debug/../src/RTD/adc128.c:26

	SPI->INT_ENABLE_REG = 0x80; // transfer complete
    13cc:	67a5                	lui	a5,0x9
    13ce:	80078793          	addi	a5,a5,-2048 # 8800 <_stack_start+0x4dd0>
    13d2:	08000713          	li	a4,128
    13d6:	cf98                	sw	a4,24(a5)
C:\Users\x-luo\proj\hw4\SW\riscv_mc_helloworld\Debug/../src/RTD/adc128.c:29

	//set word count
	SPI->TGT_WORD_CNT_REG = 1; // 2 bytes (16 bits) per channel
    13d8:	67a5                	lui	a5,0x9
    13da:	80078793          	addi	a5,a5,-2048 # 8800 <_stack_start+0x4dd0>
    13de:	4705                	li	a4,1
    13e0:	d798                	sw	a4,40(a5)
C:\Users\x-luo\proj\hw4\SW\riscv_mc_helloworld\Debug/../src/RTD/adc128.c:32

	//reset word count
	SPI->WORD_CNT_RST_REG = 0xFF;
    13e2:	67a5                	lui	a5,0x9
    13e4:	80078793          	addi	a5,a5,-2048 # 8800 <_stack_start+0x4dd0>
    13e8:	0ff00713          	li	a4,255
    13ec:	d3d8                	sw	a4,36(a5)
C:\Users\x-luo\proj\hw4\SW\riscv_mc_helloworld\Debug/../src/RTD/adc128.c:35

	//clean spi tx, rx fifo buffer
	SPI->FIFO_RST_REG = 0b11;
    13ee:	67a5                	lui	a5,0x9
    13f0:	80078793          	addi	a5,a5,-2048 # 8800 <_stack_start+0x4dd0>
    13f4:	470d                	li	a4,3
    13f6:	d7d8                	sw	a4,44(a5)
C:\Users\x-luo\proj\hw4\SW\riscv_mc_helloworld\Debug/../src/RTD/adc128.c:37

	SPI->RDWR_DATA_REG = slave_addr;
    13f8:	67a5                	lui	a5,0x9
    13fa:	80078793          	addi	a5,a5,-2048 # 8800 <_stack_start+0x4dd0>
    13fe:	fe645703          	lhu	a4,-26(s0)
    1402:	c398                	sw	a4,0(a5)
C:\Users\x-luo\proj\hw4\SW\riscv_mc_helloworld\Debug/../src/RTD/adc128.c:46
	while( (SPI->INT_STATUS_REG & INT_ENABLE_TR_CMP_EN) == 0);
	uint32_t v = SPI->RDWR_DATA_REG;
	SPI->INT_SET_REG = 0; // clean intr status
*/

	printf("int status = 0x%x\n", SPI->INT_STATUS_REG);
    1404:	67a5                	lui	a5,0x9
    1406:	80078793          	addi	a5,a5,-2048 # 8800 <_stack_start+0x4dd0>
    140a:	4bdc                	lw	a5,20(a5)
    140c:	85be                	mv	a1,a5
    140e:	678d                	lui	a5,0x3
    1410:	8dc78513          	addi	a0,a5,-1828 # 28dc <__iob+0x28>
    1414:	630000ef          	jal	ra,1a44 <printf>
C:\Users\x-luo\proj\hw4\SW\riscv_mc_helloworld\Debug/../src/RTD/adc128.c:49

	// deselect chip
	SPI->CHP_SEL_REG = 0;
    1418:	67a5                	lui	a5,0x9
    141a:	80078793          	addi	a5,a5,-2048 # 8800 <_stack_start+0x4dd0>
    141e:	0007a223          	sw	zero,4(a5)
C:\Users\x-luo\proj\hw4\SW\riscv_mc_helloworld\Debug/../src/RTD/adc128.c:51

	return 0;
    1422:	4781                	li	a5,0
C:\Users\x-luo\proj\hw4\SW\riscv_mc_helloworld\Debug/../src/RTD/adc128.c:52
}
    1424:	853e                	mv	a0,a5
    1426:	50b2                	lw	ra,44(sp)
    1428:	5422                	lw	s0,40(sp)
    142a:	6145                	addi	sp,sp,48
    142c:	8082                	ret

0000142e <lscc_uart_putc>:
lscc_uart_putc():
C:\Users\x-luo\proj\hw4\SW\riscv_mc_helloworld\Debug/../src/main.c:79
#elif (defined LOCAL_UART_INST_BASE_ADDR)
struct local_uart_instance local_uart_core;
#endif

static int lscc_uart_putc(char c, FILE *file)
{
    142e:	7179                	addi	sp,sp,-48
    1430:	d606                	sw	ra,44(sp)
    1432:	d422                	sw	s0,40(sp)
    1434:	1800                	addi	s0,sp,48
    1436:	87aa                	mv	a5,a0
    1438:	fcb42c23          	sw	a1,-40(s0)
    143c:	fcf40fa3          	sb	a5,-33(s0)
C:\Users\x-luo\proj\hw4\SW\riscv_mc_helloworld\Debug/../src/main.c:81
#ifdef LSCC_STDIO_UART_APB
		int ret = EOF;
    1440:	57fd                	li	a5,-1
    1442:	fef42623          	sw	a5,-20(s0)
C:\Users\x-luo\proj\hw4\SW\riscv_mc_helloworld\Debug/../src/main.c:83
#if (defined UART_INST_BASE_ADDR)
		ret = uart_putc(&uart_core_uart, c);
    1446:	fdf44783          	lbu	a5,-33(s0)
    144a:	85be                	mv	a1,a5
    144c:	a4418513          	addi	a0,gp,-1468 # 2fb8 <uart_core_uart>
    1450:	b28ff0ef          	jal	ra,778 <uart_putc>
    1454:	87aa                	mv	a5,a0
    1456:	fef42623          	sw	a5,-20(s0)
C:\Users\x-luo\proj\hw4\SW\riscv_mc_helloworld\Debug/../src/main.c:84
		if (c == '\n' && ret == 0)
    145a:	fdf40703          	lb	a4,-33(s0)
    145e:	47a9                	li	a5,10
    1460:	00f71d63          	bne	a4,a5,147a <lscc_uart_putc+0x4c>
C:\Users\x-luo\proj\hw4\SW\riscv_mc_helloworld\Debug/../src/main.c:84 (discriminator 1)
    1464:	fec42783          	lw	a5,-20(s0)
    1468:	eb89                	bnez	a5,147a <lscc_uart_putc+0x4c>
C:\Users\x-luo\proj\hw4\SW\riscv_mc_helloworld\Debug/../src/main.c:85
			ret = uart_putc(&uart_core_uart, '\r');
    146a:	45b5                	li	a1,13
    146c:	a4418513          	addi	a0,gp,-1468 # 2fb8 <uart_core_uart>
    1470:	b08ff0ef          	jal	ra,778 <uart_putc>
    1474:	87aa                	mv	a5,a0
    1476:	fef42623          	sw	a5,-20(s0)
C:\Users\x-luo\proj\hw4\SW\riscv_mc_helloworld\Debug/../src/main.c:91
#elif (defined LOCAL_UART_INST_BASE_ADDR)
		ret = local_uart_putc(&local_uart_core, c);
		if (c == '\n' && ret == 0)
			ret = local_uart_putc(&local_uart_core, '\r');
#endif
		return ret;
    147a:	fec42783          	lw	a5,-20(s0)
C:\Users\x-luo\proj\hw4\SW\riscv_mc_helloworld\Debug/../src/main.c:95
#else
		return EOF;
#endif
}
    147e:	853e                	mv	a0,a5
    1480:	50b2                	lw	ra,44(sp)
    1482:	5422                	lw	s0,40(sp)
    1484:	6145                	addi	sp,sp,48
    1486:	8082                	ret

00001488 <lscc_uart_getc>:
lscc_uart_getc():
C:\Users\x-luo\proj\hw4\SW\riscv_mc_helloworld\Debug/../src/main.c:100



static int lscc_uart_getc(FILE *file)
{
    1488:	1101                	addi	sp,sp,-32
    148a:	ce22                	sw	s0,28(sp)
    148c:	1000                	addi	s0,sp,32
    148e:	fea42623          	sw	a0,-20(s0)
C:\Users\x-luo\proj\hw4\SW\riscv_mc_helloworld\Debug/../src/main.c:102
	(void) file;
	return EOF;
    1492:	57fd                	li	a5,-1
C:\Users\x-luo\proj\hw4\SW\riscv_mc_helloworld\Debug/../src/main.c:103
}
    1494:	853e                	mv	a0,a5
    1496:	4472                	lw	s0,28(sp)
    1498:	6105                	addi	sp,sp,32
    149a:	8082                	ret

0000149c <lscc_uart_flush>:
lscc_uart_flush():
C:\Users\x-luo\proj\hw4\SW\riscv_mc_helloworld\Debug/../src/main.c:107


static int lscc_uart_flush(FILE *file)
{
    149c:	1101                	addi	sp,sp,-32
    149e:	ce22                	sw	s0,28(sp)
    14a0:	1000                	addi	s0,sp,32
    14a2:	fea42623          	sw	a0,-20(s0)
C:\Users\x-luo\proj\hw4\SW\riscv_mc_helloworld\Debug/../src/main.c:109
	(void) file;
	return 0;
    14a6:	4781                	li	a5,0
C:\Users\x-luo\proj\hw4\SW\riscv_mc_helloworld\Debug/../src/main.c:110
}
    14a8:	853e                	mv	a0,a5
    14aa:	4472                	lw	s0,28(sp)
    14ac:	6105                	addi	sp,sp,32
    14ae:	8082                	ret

000014b0 <bsp_init>:
bsp_init():
C:\Users\x-luo\proj\hw4\SW\riscv_mc_helloworld\Debug/../src/main.c:114


static void bsp_init(void)
{
    14b0:	1141                	addi	sp,sp,-16
    14b2:	c606                	sw	ra,12(sp)
    14b4:	c422                	sw	s0,8(sp)
    14b6:	0800                	addi	s0,sp,16
C:\Users\x-luo\proj\hw4\SW\riscv_mc_helloworld\Debug/../src/main.c:117
#ifdef GPIO_INST_BASE_ADDR
	//initialize GPIO
	gpio_inst.instance_name = GPIO_INST_NAME;
    14b8:	93c18793          	addi	a5,gp,-1732 # 2eb0 <gpio_inst>
    14bc:	670d                	lui	a4,0x3
    14be:	8f070713          	addi	a4,a4,-1808 # 28f0 <__iob+0x3c>
    14c2:	c398                	sw	a4,0(a5)
C:\Users\x-luo\proj\hw4\SW\riscv_mc_helloworld\Debug/../src/main.c:118
	gpio_init(&gpio_inst, GPIO_INST_BASE_ADDR, GPIO_INST_LINES_NUM, GPIO_INST_GPIO_DIRS);
    14c4:	0ff00693          	li	a3,255
    14c8:	4621                	li	a2,8
    14ca:	67a1                	lui	a5,0x8
    14cc:	40078593          	addi	a1,a5,1024 # 8400 <_stack_start+0x49d0>
    14d0:	93c18513          	addi	a0,gp,-1732 # 2eb0 <gpio_inst>
    14d4:	33dd                	jal	12ba <gpio_init>
C:\Users\x-luo\proj\hw4\SW\riscv_mc_helloworld\Debug/../src/main.c:124
#endif

#if (defined UART_INST_BASE_ADDR)
#ifndef _UART_NO_INTERRUPTS_
	//setup uart IRQ
	pic_init(CPU0_INST_PICTIMER_START_ADDR);
    14d6:	7541                	lui	a0,0xffff0
    14d8:	85dff0ef          	jal	ra,d34 <pic_init>
C:\Users\x-luo\proj\hw4\SW\riscv_mc_helloworld\Debug/../src/main.c:125
	uart_core_uart.intrLevel = UART0_INST_IRQ;
    14dc:	a4418793          	addi	a5,gp,-1468 # 2fb8 <uart_core_uart>
    14e0:	00078623          	sb	zero,12(a5)
C:\Users\x-luo\proj\hw4\SW\riscv_mc_helloworld\Debug/../src/main.c:126
	uart_core_uart.intrAvail = true;
    14e4:	a4418793          	addi	a5,gp,-1468 # 2fb8 <uart_core_uart>
    14e8:	4705                	li	a4,1
    14ea:	00e786a3          	sb	a4,13(a5)
C:\Users\x-luo\proj\hw4\SW\riscv_mc_helloworld\Debug/../src/main.c:131
	//pic_isr_register(UART0_INST_IRQ, uart_isr, (void *)&uart_core_uart);
#endif

	//initialize UART
	uart_init(&uart_core_uart, UART_INST_BASE_ADDR, UART_INST_SYS_CLK * 1000000, UART_INST_BAUD_RATE, 1, 8);
    14ee:	47a1                	li	a5,8
    14f0:	4705                	li	a4,1
    14f2:	66f1                	lui	a3,0x1c
    14f4:	20068693          	addi	a3,a3,512 # 1c200 <_stack_start+0x187d0>
    14f8:	0112b637          	lui	a2,0x112b
    14fc:	88060613          	addi	a2,a2,-1920 # 112a880 <_stack_start+0x1126e50>
    1500:	65a1                	lui	a1,0x8
    1502:	a4418513          	addi	a0,gp,-1468 # 2fb8 <uart_core_uart>
    1506:	da9fe0ef          	jal	ra,2ae <uart_init>
C:\Users\x-luo\proj\hw4\SW\riscv_mc_helloworld\Debug/../src/main.c:137
#elif (defined LOCAL_UART_INST_BASE_ADDR)

    local_uart_init(&local_uart_core, LOCAL_UART_INST_BASE_ADDR, CPU0_INST_SYS_CLOCK_FREQ * 1000000, CPU0_INST_BAUD_RATE, 1, 8);
#endif

    pic_isr_register(SPI_INST_IRQ, spi_isr, &spi_mast);
    150a:	90c18613          	addi	a2,gp,-1780 # 2e80 <spi_mast>
    150e:	6785                	lui	a5,0x1
    1510:	ad678593          	addi	a1,a5,-1322 # ad6 <spi_isr>
    1514:	4509                	li	a0,2
    1516:	95bff0ef          	jal	ra,e70 <pic_isr_register>
C:\Users\x-luo\proj\hw4\SW\riscv_mc_helloworld\Debug/../src/main.c:138
    pic_int_enable( SPI_INST_IRQ );
    151a:	4509                	li	a0,2
    151c:	893ff0ef          	jal	ra,dae <pic_int_enable>
C:\Users\x-luo\proj\hw4\SW\riscv_mc_helloworld\Debug/../src/main.c:140
    //enable SPI transfer complete interrupt
    spi_int_enable();
    1520:	d9cff0ef          	jal	ra,abc <spi_int_enable>
C:\Users\x-luo\proj\hw4\SW\riscv_mc_helloworld\Debug/../src/main.c:142

	iob_init(lscc_uart_putc, lscc_uart_getc, lscc_uart_flush);
    1524:	6785                	lui	a5,0x1
    1526:	49c78613          	addi	a2,a5,1180 # 149c <lscc_uart_flush>
    152a:	6785                	lui	a5,0x1
    152c:	48878593          	addi	a1,a5,1160 # 1488 <lscc_uart_getc>
    1530:	6785                	lui	a5,0x1
    1532:	42e78513          	addi	a0,a5,1070 # 142e <lscc_uart_putc>
    1536:	f3cff0ef          	jal	ra,c72 <iob_init>
C:\Users\x-luo\proj\hw4\SW\riscv_mc_helloworld\Debug/../src/main.c:143
	trap_init();
    153a:	29e1                	jal	1a12 <trap_init>
C:\Users\x-luo\proj\hw4\SW\riscv_mc_helloworld\Debug/../src/main.c:144
}
    153c:	0001                	nop
    153e:	40b2                	lw	ra,12(sp)
    1540:	4422                	lw	s0,8(sp)
    1542:	0141                	addi	sp,sp,16
    1544:	8082                	ret

00001546 <main>:
main():
C:\Users\x-luo\proj\hw4\SW\riscv_mc_helloworld\Debug/../src/main.c:148

uint16_t rx_buf[16];

int main(void) {
    1546:	7159                	addi	sp,sp,-112
    1548:	d686                	sw	ra,108(sp)
    154a:	d4a2                	sw	s0,104(sp)
    154c:	1880                	addi	s0,sp,112
C:\Users\x-luo\proj\hw4\SW\riscv_mc_helloworld\Debug/../src/main.c:152
	static uint8_t idx = 0;
	static uint8_t pin_state = 0xFF;

	bsp_init();
    154e:	378d                	jal	14b0 <bsp_init>
C:\Users\x-luo\proj\hw4\SW\riscv_mc_helloworld\Debug/../src/main.c:156



	timer_test();
    1550:	3b25                	jal	1288 <timer_test>
C:\Users\x-luo\proj\hw4\SW\riscv_mc_helloworld\Debug/../src/main.c:158

	spi_master_init( &spi_mast, SPI_INST_BASE_ADDR,
    1552:	47c1                	li	a5,16
    1554:	c03e                	sw	a5,0(sp)
    1556:	48c1                	li	a7,16
    1558:	4831                	li	a6,12
    155a:	0fa00793          	li	a5,250
    155e:	07b00713          	li	a4,123
    1562:	07b00693          	li	a3,123
    1566:	4621                	li	a2,8
    1568:	65a5                	lui	a1,0x9
    156a:	80058593          	addi	a1,a1,-2048 # 8800 <_stack_start+0x4dd0>
    156e:	90c18513          	addi	a0,gp,-1780 # 2e80 <spi_mast>
    1572:	cb8ff0ef          	jal	ra,a2a <spi_master_init>
C:\Users\x-luo\proj\hw4\SW\riscv_mc_helloworld\Debug/../src/main.c:169
		SPI_INST_FIFO_DEPTH,//uint32_t spi_rx_fifo_depth,
		SPI_INST_FIFO_DEPTH);//uint32_t spi_tx_fifo_depth)



	parse_input( "m 8800 10" );
    1576:	678d                	lui	a5,0x3
    1578:	8fc78513          	addi	a0,a5,-1796 # 28fc <__iob+0x48>
    157c:	28ed                	jal	1676 <parse_input>
C:\Users\x-luo\proj\hw4\SW\riscv_mc_helloworld\Debug/../src/main.c:171

	adc128_read_rtd( 7, rx_buf );
    157e:	a9c18593          	addi	a1,gp,-1380 # 3010 <rx_buf>
    1582:	451d                	li	a0,7
    1584:	3be9                	jal	135e <adc128_read_rtd>
C:\Users\x-luo\proj\hw4\SW\riscv_mc_helloworld\Debug/../src/main.c:173

	int temp = 0;
    1586:	fe042623          	sw	zero,-20(s0)
C:\Users\x-luo\proj\hw4\SW\riscv_mc_helloworld\Debug/../src/main.c:175 (discriminator 1)
	do{
		temp = spi_get_value();
    158a:	d7eff0ef          	jal	ra,b08 <spi_get_value>
    158e:	fea42623          	sw	a0,-20(s0)
C:\Users\x-luo\proj\hw4\SW\riscv_mc_helloworld\Debug/../src/main.c:176 (discriminator 1)
	}while( temp == -1);
    1592:	fec42703          	lw	a4,-20(s0)
    1596:	57fd                	li	a5,-1
    1598:	fef709e3          	beq	a4,a5,158a <main+0x44>
C:\Users\x-luo\proj\hw4\SW\riscv_mc_helloworld\Debug/../src/main.c:177
	LOG_X(temp);
    159c:	fec42603          	lw	a2,-20(s0)
    15a0:	678d                	lui	a5,0x3
    15a2:	90878593          	addi	a1,a5,-1784 # 2908 <__iob+0x54>
    15a6:	678d                	lui	a5,0x3
    15a8:	91078513          	addi	a0,a5,-1776 # 2910 <__iob+0x5c>
    15ac:	2961                	jal	1a44 <printf>
C:\Users\x-luo\proj\hw4\SW\riscv_mc_helloworld\Debug/../src/main.c:179

	adc128_read_rtd( 9, rx_buf );
    15ae:	a9c18593          	addi	a1,gp,-1380 # 3010 <rx_buf>
    15b2:	4525                	li	a0,9
    15b4:	336d                	jal	135e <adc128_read_rtd>
C:\Users\x-luo\proj\hw4\SW\riscv_mc_helloworld\Debug/../src/main.c:183 (discriminator 1)


	do{
		temp = spi_get_value();
    15b6:	d52ff0ef          	jal	ra,b08 <spi_get_value>
    15ba:	fea42623          	sw	a0,-20(s0)
C:\Users\x-luo\proj\hw4\SW\riscv_mc_helloworld\Debug/../src/main.c:184 (discriminator 1)
	}while( temp == -1);
    15be:	fec42703          	lw	a4,-20(s0)
    15c2:	57fd                	li	a5,-1
    15c4:	fef709e3          	beq	a4,a5,15b6 <main+0x70>
C:\Users\x-luo\proj\hw4\SW\riscv_mc_helloworld\Debug/../src/main.c:185
	LOG_X(temp);
    15c8:	fec42603          	lw	a2,-20(s0)
    15cc:	678d                	lui	a5,0x3
    15ce:	90878593          	addi	a1,a5,-1784 # 2908 <__iob+0x54>
    15d2:	678d                	lui	a5,0x3
    15d4:	91078513          	addi	a0,a5,-1776 # 2910 <__iob+0x5c>
    15d8:	21b5                	jal	1a44 <printf>
C:\Users\x-luo\proj\hw4\SW\riscv_mc_helloworld\Debug/../src/main.c:187

	printf("adc128_read: 0x%x\n", rx_buf[0]);
    15da:	a9c18793          	addi	a5,gp,-1380 # 3010 <rx_buf>
    15de:	0007d783          	lhu	a5,0(a5)
    15e2:	85be                	mv	a1,a5
    15e4:	678d                	lui	a5,0x3
    15e6:	91c78513          	addi	a0,a5,-1764 # 291c <__iob+0x68>
    15ea:	29a9                	jal	1a44 <printf>
C:\Users\x-luo\proj\hw4\SW\riscv_mc_helloworld\Debug/../src/main.c:189

	printf("Started!\nHello RISC-V world!\n"); 
    15ec:	678d                	lui	a5,0x3
    15ee:	93078513          	addi	a0,a5,-1744 # 2930 <__iob+0x7c>
    15f2:	2149                	jal	1a74 <puts>
C:\Users\x-luo\proj\hw4\SW\riscv_mc_helloworld\Debug/../src/main.c:190
	printf("%d\n", sizeof(uint32_t));
    15f4:	4591                	li	a1,4
    15f6:	678d                	lui	a5,0x3
    15f8:	95078513          	addi	a0,a5,-1712 # 2950 <__iob+0x9c>
    15fc:	21a1                	jal	1a44 <printf>
C:\Users\x-luo\proj\hw4\SW\riscv_mc_helloworld\Debug/../src/main.c:192 (discriminator 1)
while(1){
	unsigned char buf[64] = {0};
    15fe:	fa042423          	sw	zero,-88(s0)
    1602:	fa042623          	sw	zero,-84(s0)
    1606:	fa042823          	sw	zero,-80(s0)
    160a:	fa042a23          	sw	zero,-76(s0)
    160e:	fa042c23          	sw	zero,-72(s0)
    1612:	fa042e23          	sw	zero,-68(s0)
    1616:	fc042023          	sw	zero,-64(s0)
    161a:	fc042223          	sw	zero,-60(s0)
    161e:	fc042423          	sw	zero,-56(s0)
    1622:	fc042623          	sw	zero,-52(s0)
    1626:	fc042823          	sw	zero,-48(s0)
    162a:	fc042a23          	sw	zero,-44(s0)
    162e:	fc042c23          	sw	zero,-40(s0)
    1632:	fc042e23          	sw	zero,-36(s0)
    1636:	fe042023          	sw	zero,-32(s0)
    163a:	fe042223          	sw	zero,-28(s0)
C:\Users\x-luo\proj\hw4\SW\riscv_mc_helloworld\Debug/../src/main.c:193 (discriminator 1)
    printf("Enter command:\n>");
    163e:	678d                	lui	a5,0x3
    1640:	95478513          	addi	a0,a5,-1708 # 2954 <__iob+0xa0>
    1644:	2101                	jal	1a44 <printf>
C:\Users\x-luo\proj\hw4\SW\riscv_mc_helloworld\Debug/../src/main.c:194 (discriminator 1)
	int ret = uart_getline(&uart_core_uart, buf, sizeof(buf));
    1646:	fa840793          	addi	a5,s0,-88
    164a:	04000613          	li	a2,64
    164e:	85be                	mv	a1,a5
    1650:	a4418513          	addi	a0,gp,-1468 # 2fb8 <uart_core_uart>
    1654:	d71fe0ef          	jal	ra,3c4 <uart_getline>
    1658:	87aa                	mv	a5,a0
    165a:	fef42423          	sw	a5,-24(s0)
C:\Users\x-luo\proj\hw4\SW\riscv_mc_helloworld\Debug/../src/main.c:195 (discriminator 1)
    printf("\n%s", buf);
    165e:	fa840793          	addi	a5,s0,-88
    1662:	85be                	mv	a1,a5
    1664:	678d                	lui	a5,0x3
    1666:	96878513          	addi	a0,a5,-1688 # 2968 <__iob+0xb4>
    166a:	2ee9                	jal	1a44 <printf>
C:\Users\x-luo\proj\hw4\SW\riscv_mc_helloworld\Debug/../src/main.c:196 (discriminator 1)
    parse_input( buf );
    166c:	fa840793          	addi	a5,s0,-88
    1670:	853e                	mv	a0,a5
    1672:	2011                	jal	1676 <parse_input>
C:\Users\x-luo\proj\hw4\SW\riscv_mc_helloworld\Debug/../src/main.c:191 (discriminator 1)
while(1){
    1674:	b769                	j	15fe <main+0xb8>

00001676 <parse_input>:
parse_input():
C:\Users\x-luo\proj\hw4\SW\riscv_mc_helloworld\Debug/../src/parse_input.c:18
    0x30, 0x31, 0x32, 0x33, 0x34, 0x35, 0x36, 0x37, 0x38, 0x39, 0x3a, 0x3b, 0x3c, 0x3d, 0x3e, 0x3f
};

static void execute_command(int items_count, const char* cmd, unsigned int addr, unsigned int val);

void parse_input(const char input[]) {
    1676:	7171                	addi	sp,sp,-176
    1678:	d706                	sw	ra,172(sp)
    167a:	d522                	sw	s0,168(sp)
    167c:	1900                	addi	s0,sp,176
    167e:	f4a42e23          	sw	a0,-164(s0)
C:\Users\x-luo\proj\hw4\SW\riscv_mc_helloworld\Debug/../src/parse_input.c:20
    char cmd[128];
    uint32_t addr, val = 0;
    1682:	f6042223          	sw	zero,-156(s0)
C:\Users\x-luo\proj\hw4\SW\riscv_mc_helloworld\Debug/../src/parse_input.c:21
    int items_read = 0;
    1686:	fe042623          	sw	zero,-20(s0)
C:\Users\x-luo\proj\hw4\SW\riscv_mc_helloworld\Debug/../src/parse_input.c:23

printf("%s\n",input);
    168a:	f5c42503          	lw	a0,-164(s0)
    168e:	26dd                	jal	1a74 <puts>
C:\Users\x-luo\proj\hw4\SW\riscv_mc_helloworld\Debug/../src/parse_input.c:25

    items_read = sscanf(input, "%s %x %x", cmd, &addr, &val);
    1690:	f6440713          	addi	a4,s0,-156
    1694:	f6840693          	addi	a3,s0,-152
    1698:	f6c40793          	addi	a5,s0,-148
    169c:	863e                	mv	a2,a5
    169e:	678d                	lui	a5,0x3
    16a0:	96c78593          	addi	a1,a5,-1684 # 296c <__iob+0xb8>
    16a4:	f5c42503          	lw	a0,-164(s0)
    16a8:	2129                	jal	1ab2 <sscanf>
    16aa:	fea42623          	sw	a0,-20(s0)
C:\Users\x-luo\proj\hw4\SW\riscv_mc_helloworld\Debug/../src/parse_input.c:26
printf("items_read: %d\n", items_read);
    16ae:	fec42583          	lw	a1,-20(s0)
    16b2:	678d                	lui	a5,0x3
    16b4:	97878513          	addi	a0,a5,-1672 # 2978 <__iob+0xc4>
    16b8:	2671                	jal	1a44 <printf>
C:\Users\x-luo\proj\hw4\SW\riscv_mc_helloworld\Debug/../src/parse_input.c:28

    if (items_read != 0 ) {
    16ba:	fec42783          	lw	a5,-20(s0)
    16be:	cf81                	beqz	a5,16d6 <parse_input+0x60>
C:\Users\x-luo\proj\hw4\SW\riscv_mc_helloworld\Debug/../src/parse_input.c:29
        execute_command(items_read, cmd, addr, val);
    16c0:	f6842703          	lw	a4,-152(s0)
    16c4:	f6442683          	lw	a3,-156(s0)
    16c8:	f6c40793          	addi	a5,s0,-148
    16cc:	863a                	mv	a2,a4
    16ce:	85be                	mv	a1,a5
    16d0:	fec42503          	lw	a0,-20(s0)
    16d4:	201d                	jal	16fa <execute_command>
C:\Users\x-luo\proj\hw4\SW\riscv_mc_helloworld\Debug/../src/parse_input.c:31
    }
}
    16d6:	0001                	nop
    16d8:	50ba                	lw	ra,172(sp)
    16da:	542a                	lw	s0,168(sp)
    16dc:	614d                	addi	sp,sp,176
    16de:	8082                	ret

000016e0 <help>:
help():
C:\Users\x-luo\proj\hw4\SW\riscv_mc_helloworld\Debug/../src/parse_input.c:33

void help(void) {
    16e0:	1141                	addi	sp,sp,-16
    16e2:	c606                	sw	ra,12(sp)
    16e4:	c422                	sw	s0,8(sp)
    16e6:	0800                	addi	s0,sp,16
C:\Users\x-luo\proj\hw4\SW\riscv_mc_helloworld\Debug/../src/parse_input.c:34
    printf("valid command:\n"
    16e8:	678d                	lui	a5,0x3
    16ea:	98878513          	addi	a0,a5,-1656 # 2988 <__iob+0xd4>
    16ee:	2659                	jal	1a74 <puts>
C:\Users\x-luo\proj\hw4\SW\riscv_mc_helloworld\Debug/../src/parse_input.c:40
           "r address(hex)                ## read 32bits from address\n"
           "w address(hex) value          ## write value(32bits) to address\n"
           "m address(hex) count          ## read  from address up to the count \n"
           "s address(hex) count value    ## write value(32bits) to address\n"
           "?                             ## help\n");
}
    16f0:	0001                	nop
    16f2:	40b2                	lw	ra,12(sp)
    16f4:	4422                	lw	s0,8(sp)
    16f6:	0141                	addi	sp,sp,16
    16f8:	8082                	ret

000016fa <execute_command>:
execute_command():
C:\Users\x-luo\proj\hw4\SW\riscv_mc_helloworld\Debug/../src/parse_input.c:42

void execute_command(int items_count, const char* cmd, unsigned int addr, unsigned int val) {
    16fa:	7139                	addi	sp,sp,-64
    16fc:	de06                	sw	ra,60(sp)
    16fe:	dc22                	sw	s0,56(sp)
    1700:	0080                	addi	s0,sp,64
    1702:	fca42623          	sw	a0,-52(s0)
    1706:	fcb42423          	sw	a1,-56(s0)
    170a:	fcc42223          	sw	a2,-60(s0)
    170e:	fcd42023          	sw	a3,-64(s0)
C:\Users\x-luo\proj\hw4\SW\riscv_mc_helloworld\Debug/../src/parse_input.c:43
    if (strcmp(cmd, "r") == 0 && items_count == 2) {
    1712:	678d                	lui	a5,0x3
    1714:	abc78593          	addi	a1,a5,-1348 # 2abc <__iob+0x208>
    1718:	fc842503          	lw	a0,-56(s0)
    171c:	691000ef          	jal	ra,25ac <strcmp>
    1720:	87aa                	mv	a5,a0
    1722:	e7a1                	bnez	a5,176a <execute_command+0x70>
C:\Users\x-luo\proj\hw4\SW\riscv_mc_helloworld\Debug/../src/parse_input.c:43 (discriminator 1)
    1724:	fcc42703          	lw	a4,-52(s0)
    1728:	4789                	li	a5,2
    172a:	04f71063          	bne	a4,a5,176a <execute_command+0x70>
C:\Users\x-luo\proj\hw4\SW\riscv_mc_helloworld\Debug/../src/parse_input.c:44
    	if( addr%4 == 0){
    172e:	fc442783          	lw	a5,-60(s0)
    1732:	8b8d                	andi	a5,a5,3
    1734:	e795                	bnez	a5,1760 <execute_command+0x66>
C:\Users\x-luo\proj\hw4\SW\riscv_mc_helloworld\Debug/../src/parse_input.c:45
    		printf("Read uint32_t from address 0x%x\n", addr);
    1736:	fc442583          	lw	a1,-60(s0)
    173a:	678d                	lui	a5,0x3
    173c:	ac078513          	addi	a0,a5,-1344 # 2ac0 <__iob+0x20c>
    1740:	2611                	jal	1a44 <printf>
C:\Users\x-luo\proj\hw4\SW\riscv_mc_helloworld\Debug/../src/parse_input.c:46
    		uint32_t *p = (uint32_t*)addr;
    1742:	fc442783          	lw	a5,-60(s0)
    1746:	fef42223          	sw	a5,-28(s0)
C:\Users\x-luo\proj\hw4\SW\riscv_mc_helloworld\Debug/../src/parse_input.c:47
    		printf("[%p] : %08x\n", p, (unsigned int)(*p));
    174a:	fe442783          	lw	a5,-28(s0)
    174e:	439c                	lw	a5,0(a5)
    1750:	863e                	mv	a2,a5
    1752:	fe442583          	lw	a1,-28(s0)
    1756:	678d                	lui	a5,0x3
    1758:	ae478513          	addi	a0,a5,-1308 # 2ae4 <__iob+0x230>
    175c:	24e5                	jal	1a44 <printf>
C:\Users\x-luo\proj\hw4\SW\riscv_mc_helloworld\Debug/../src/parse_input.c:44
    	if( addr%4 == 0){
    175e:	a46d                	j	1a08 <execute_command+0x30e>
C:\Users\x-luo\proj\hw4\SW\riscv_mc_helloworld\Debug/../src/parse_input.c:49
    	} else {
    		printf("address must align 4 bytes, in order to read uint32\n");
    1760:	678d                	lui	a5,0x3
    1762:	af478513          	addi	a0,a5,-1292 # 2af4 <__iob+0x240>
    1766:	2639                	jal	1a74 <puts>
C:\Users\x-luo\proj\hw4\SW\riscv_mc_helloworld\Debug/../src/parse_input.c:44
    	if( addr%4 == 0){
    1768:	a445                	j	1a08 <execute_command+0x30e>
C:\Users\x-luo\proj\hw4\SW\riscv_mc_helloworld\Debug/../src/parse_input.c:54
    	}


    } else
    if (strcmp(cmd, "r16") == 0 && items_count == 2) {
    176a:	678d                	lui	a5,0x3
    176c:	b2878593          	addi	a1,a5,-1240 # 2b28 <__iob+0x274>
    1770:	fc842503          	lw	a0,-56(s0)
    1774:	639000ef          	jal	ra,25ac <strcmp>
    1778:	87aa                	mv	a5,a0
    177a:	eba9                	bnez	a5,17cc <execute_command+0xd2>
C:\Users\x-luo\proj\hw4\SW\riscv_mc_helloworld\Debug/../src/parse_input.c:54 (discriminator 1)
    177c:	fcc42703          	lw	a4,-52(s0)
    1780:	4789                	li	a5,2
    1782:	04f71563          	bne	a4,a5,17cc <execute_command+0xd2>
C:\Users\x-luo\proj\hw4\SW\riscv_mc_helloworld\Debug/../src/parse_input.c:55
    	if( addr%2 == 0 ){
    1786:	fc442783          	lw	a5,-60(s0)
    178a:	8b85                	andi	a5,a5,1
    178c:	eb9d                	bnez	a5,17c2 <execute_command+0xc8>
C:\Users\x-luo\proj\hw4\SW\riscv_mc_helloworld\Debug/../src/parse_input.c:56
    		printf("Read uint16_t from address 0x%x\n", addr);
    178e:	fc442583          	lw	a1,-60(s0)
    1792:	678d                	lui	a5,0x3
    1794:	b2c78513          	addi	a0,a5,-1236 # 2b2c <__iob+0x278>
    1798:	2475                	jal	1a44 <printf>
C:\Users\x-luo\proj\hw4\SW\riscv_mc_helloworld\Debug/../src/parse_input.c:57
    		uint16_t *p = (uint16_t*)&memory[addr];
    179a:	fc442703          	lw	a4,-60(s0)
    179e:	678d                	lui	a5,0x3
    17a0:	d3478793          	addi	a5,a5,-716 # 2d34 <memory>
    17a4:	97ba                	add	a5,a5,a4
    17a6:	fef42023          	sw	a5,-32(s0)
C:\Users\x-luo\proj\hw4\SW\riscv_mc_helloworld\Debug/../src/parse_input.c:58
    		printf("[%p] : %04x\n", p, (unsigned int)(*p));
    17aa:	fe042783          	lw	a5,-32(s0)
    17ae:	0007d783          	lhu	a5,0(a5)
    17b2:	863e                	mv	a2,a5
    17b4:	fe042583          	lw	a1,-32(s0)
    17b8:	678d                	lui	a5,0x3
    17ba:	b5078513          	addi	a0,a5,-1200 # 2b50 <__iob+0x29c>
    17be:	2459                	jal	1a44 <printf>
C:\Users\x-luo\proj\hw4\SW\riscv_mc_helloworld\Debug/../src/parse_input.c:55
    	if( addr%2 == 0 ){
    17c0:	a4a1                	j	1a08 <execute_command+0x30e>
C:\Users\x-luo\proj\hw4\SW\riscv_mc_helloworld\Debug/../src/parse_input.c:60
    	}else {
    		printf("address must align 4 bytes, in order to read uint32\n");
    17c2:	678d                	lui	a5,0x3
    17c4:	af478513          	addi	a0,a5,-1292 # 2af4 <__iob+0x240>
    17c8:	2475                	jal	1a74 <puts>
C:\Users\x-luo\proj\hw4\SW\riscv_mc_helloworld\Debug/../src/parse_input.c:55
    	if( addr%2 == 0 ){
    17ca:	ac3d                	j	1a08 <execute_command+0x30e>
C:\Users\x-luo\proj\hw4\SW\riscv_mc_helloworld\Debug/../src/parse_input.c:63
    	}
    } else
    if (strcmp(cmd, "r8") == 0 && items_count == 2) {
    17cc:	678d                	lui	a5,0x3
    17ce:	b6078593          	addi	a1,a5,-1184 # 2b60 <__iob+0x2ac>
    17d2:	fc842503          	lw	a0,-56(s0)
    17d6:	5d7000ef          	jal	ra,25ac <strcmp>
    17da:	87aa                	mv	a5,a0
    17dc:	e3a1                	bnez	a5,181c <execute_command+0x122>
C:\Users\x-luo\proj\hw4\SW\riscv_mc_helloworld\Debug/../src/parse_input.c:63 (discriminator 1)
    17de:	fcc42703          	lw	a4,-52(s0)
    17e2:	4789                	li	a5,2
    17e4:	02f71c63          	bne	a4,a5,181c <execute_command+0x122>
C:\Users\x-luo\proj\hw4\SW\riscv_mc_helloworld\Debug/../src/parse_input.c:64
        printf("Read uint8_t from address 0x%x\n", addr);
    17e8:	fc442583          	lw	a1,-60(s0)
    17ec:	678d                	lui	a5,0x3
    17ee:	b6478513          	addi	a0,a5,-1180 # 2b64 <__iob+0x2b0>
    17f2:	2c89                	jal	1a44 <printf>
C:\Users\x-luo\proj\hw4\SW\riscv_mc_helloworld\Debug/../src/parse_input.c:65
        uint8_t *p = (uint8_t*)&memory[addr];
    17f4:	fc442703          	lw	a4,-60(s0)
    17f8:	678d                	lui	a5,0x3
    17fa:	d3478793          	addi	a5,a5,-716 # 2d34 <memory>
    17fe:	97ba                	add	a5,a5,a4
    1800:	fcf42e23          	sw	a5,-36(s0)
C:\Users\x-luo\proj\hw4\SW\riscv_mc_helloworld\Debug/../src/parse_input.c:66
        printf("[%p] : %02x\n", p, (unsigned int)(*p));
    1804:	fdc42783          	lw	a5,-36(s0)
    1808:	0007c783          	lbu	a5,0(a5)
    180c:	863e                	mv	a2,a5
    180e:	fdc42583          	lw	a1,-36(s0)
    1812:	678d                	lui	a5,0x3
    1814:	b8478513          	addi	a0,a5,-1148 # 2b84 <__iob+0x2d0>
    1818:	2435                	jal	1a44 <printf>
C:\Users\x-luo\proj\hw4\SW\riscv_mc_helloworld\Debug/../src/parse_input.c:63
    if (strcmp(cmd, "r8") == 0 && items_count == 2) {
    181a:	a2fd                	j	1a08 <execute_command+0x30e>
C:\Users\x-luo\proj\hw4\SW\riscv_mc_helloworld\Debug/../src/parse_input.c:68
    } else
    if (strcmp(cmd, "m") == 0 && items_count == 3) {
    181c:	678d                	lui	a5,0x3
    181e:	b9478593          	addi	a1,a5,-1132 # 2b94 <__iob+0x2e0>
    1822:	fc842503          	lw	a0,-56(s0)
    1826:	587000ef          	jal	ra,25ac <strcmp>
    182a:	87aa                	mv	a5,a0
    182c:	ebbd                	bnez	a5,18a2 <execute_command+0x1a8>
C:\Users\x-luo\proj\hw4\SW\riscv_mc_helloworld\Debug/../src/parse_input.c:68 (discriminator 1)
    182e:	fcc42703          	lw	a4,-52(s0)
    1832:	478d                	li	a5,3
    1834:	06f71763          	bne	a4,a5,18a2 <execute_command+0x1a8>
C:\Users\x-luo\proj\hw4\SW\riscv_mc_helloworld\Debug/../src/parse_input.c:69
    	if( addr%4 == 0 ){
    1838:	fc442783          	lw	a5,-60(s0)
    183c:	8b8d                	andi	a5,a5,3
    183e:	efa9                	bnez	a5,1898 <execute_command+0x19e>
C:\Users\x-luo\proj\hw4\SW\riscv_mc_helloworld\Debug/../src/parse_input.c:70
    		printf("Read Array uint32_t from address 0x%x, count %d\n", addr, val);
    1840:	fc042603          	lw	a2,-64(s0)
    1844:	fc442583          	lw	a1,-60(s0)
    1848:	678d                	lui	a5,0x3
    184a:	b9878513          	addi	a0,a5,-1128 # 2b98 <__iob+0x2e4>
    184e:	2add                	jal	1a44 <printf>
C:\Users\x-luo\proj\hw4\SW\riscv_mc_helloworld\Debug/../src/parse_input.c:72

    		uint32_t *p = (uint32_t*)addr;
    1850:	fc442783          	lw	a5,-60(s0)
    1854:	fef42623          	sw	a5,-20(s0)
C:\Users\x-luo\proj\hw4\SW\riscv_mc_helloworld\Debug/../src/parse_input.c:73
    		for( int i = 0; i < val; i++ ){
    1858:	fe042423          	sw	zero,-24(s0)
    185c:	a02d                	j	1886 <execute_command+0x18c>
C:\Users\x-luo\proj\hw4\SW\riscv_mc_helloworld\Debug/../src/parse_input.c:74 (discriminator 3)
    			printf("[%p] : %08x\n", p, (unsigned int)(*p));
    185e:	fec42783          	lw	a5,-20(s0)
    1862:	439c                	lw	a5,0(a5)
    1864:	863e                	mv	a2,a5
    1866:	fec42583          	lw	a1,-20(s0)
    186a:	678d                	lui	a5,0x3
    186c:	ae478513          	addi	a0,a5,-1308 # 2ae4 <__iob+0x230>
    1870:	2ad1                	jal	1a44 <printf>
C:\Users\x-luo\proj\hw4\SW\riscv_mc_helloworld\Debug/../src/parse_input.c:75 (discriminator 3)
    			p++;
    1872:	fec42783          	lw	a5,-20(s0)
    1876:	0791                	addi	a5,a5,4
    1878:	fef42623          	sw	a5,-20(s0)
C:\Users\x-luo\proj\hw4\SW\riscv_mc_helloworld\Debug/../src/parse_input.c:73 (discriminator 3)
    		for( int i = 0; i < val; i++ ){
    187c:	fe842783          	lw	a5,-24(s0)
    1880:	0785                	addi	a5,a5,1
    1882:	fef42423          	sw	a5,-24(s0)
C:\Users\x-luo\proj\hw4\SW\riscv_mc_helloworld\Debug/../src/parse_input.c:73 (discriminator 1)
    1886:	fe842783          	lw	a5,-24(s0)
    188a:	fc042703          	lw	a4,-64(s0)
    188e:	fce7e8e3          	bltu	a5,a4,185e <execute_command+0x164>
C:\Users\x-luo\proj\hw4\SW\riscv_mc_helloworld\Debug/../src/parse_input.c:77
    		}
    		printf("\n");
    1892:	4529                	li	a0,10
    1894:	2ad9                	jal	1a6a <putchar>
C:\Users\x-luo\proj\hw4\SW\riscv_mc_helloworld\Debug/../src/parse_input.c:69
    	if( addr%4 == 0 ){
    1896:	aa8d                	j	1a08 <execute_command+0x30e>
C:\Users\x-luo\proj\hw4\SW\riscv_mc_helloworld\Debug/../src/parse_input.c:79
    	}else{
    		printf("address must align 4 bytes, in order to write uint32\n");
    1898:	678d                	lui	a5,0x3
    189a:	bcc78513          	addi	a0,a5,-1076 # 2bcc <__iob+0x318>
    189e:	2ad9                	jal	1a74 <puts>
C:\Users\x-luo\proj\hw4\SW\riscv_mc_helloworld\Debug/../src/parse_input.c:69
    	if( addr%4 == 0 ){
    18a0:	a2a5                	j	1a08 <execute_command+0x30e>
C:\Users\x-luo\proj\hw4\SW\riscv_mc_helloworld\Debug/../src/parse_input.c:82
    	}
    } else
    if (strcmp(cmd, "m16") == 0 && items_count == 3) {
    18a2:	678d                	lui	a5,0x3
    18a4:	c0478593          	addi	a1,a5,-1020 # 2c04 <__iob+0x350>
    18a8:	fc842503          	lw	a0,-56(s0)
    18ac:	501000ef          	jal	ra,25ac <strcmp>
    18b0:	87aa                	mv	a5,a0
    18b2:	ef99                	bnez	a5,18d0 <execute_command+0x1d6>
C:\Users\x-luo\proj\hw4\SW\riscv_mc_helloworld\Debug/../src/parse_input.c:82 (discriminator 1)
    18b4:	fcc42703          	lw	a4,-52(s0)
    18b8:	478d                	li	a5,3
    18ba:	00f71b63          	bne	a4,a5,18d0 <execute_command+0x1d6>
C:\Users\x-luo\proj\hw4\SW\riscv_mc_helloworld\Debug/../src/parse_input.c:83
        printf("Read Array uint16_t from address 0x%x, count %d\n", addr, val);
    18be:	fc042603          	lw	a2,-64(s0)
    18c2:	fc442583          	lw	a1,-60(s0)
    18c6:	678d                	lui	a5,0x3
    18c8:	c0878513          	addi	a0,a5,-1016 # 2c08 <__iob+0x354>
    18cc:	2aa5                	jal	1a44 <printf>
    18ce:	aa2d                	j	1a08 <execute_command+0x30e>
C:\Users\x-luo\proj\hw4\SW\riscv_mc_helloworld\Debug/../src/parse_input.c:86
        // Implement actual read operation here
    } else
    if (strcmp(cmd, "m8") == 0 && items_count == 3) {
    18d0:	678d                	lui	a5,0x3
    18d2:	c3c78593          	addi	a1,a5,-964 # 2c3c <__iob+0x388>
    18d6:	fc842503          	lw	a0,-56(s0)
    18da:	4d3000ef          	jal	ra,25ac <strcmp>
    18de:	87aa                	mv	a5,a0
    18e0:	ef99                	bnez	a5,18fe <execute_command+0x204>
C:\Users\x-luo\proj\hw4\SW\riscv_mc_helloworld\Debug/../src/parse_input.c:86 (discriminator 1)
    18e2:	fcc42703          	lw	a4,-52(s0)
    18e6:	478d                	li	a5,3
    18e8:	00f71b63          	bne	a4,a5,18fe <execute_command+0x204>
C:\Users\x-luo\proj\hw4\SW\riscv_mc_helloworld\Debug/../src/parse_input.c:87
        printf("Read Array uint8_t from address 0x%x, count %d\n", addr, val);
    18ec:	fc042603          	lw	a2,-64(s0)
    18f0:	fc442583          	lw	a1,-60(s0)
    18f4:	678d                	lui	a5,0x3
    18f6:	c4078513          	addi	a0,a5,-960 # 2c40 <__iob+0x38c>
    18fa:	22a9                	jal	1a44 <printf>
    18fc:	a231                	j	1a08 <execute_command+0x30e>
C:\Users\x-luo\proj\hw4\SW\riscv_mc_helloworld\Debug/../src/parse_input.c:90
        // Implement actual read operation here
    } else
    if (strcmp(cmd, "w") == 0 && items_count == 3) {
    18fe:	678d                	lui	a5,0x3
    1900:	c7078593          	addi	a1,a5,-912 # 2c70 <__iob+0x3bc>
    1904:	fc842503          	lw	a0,-56(s0)
    1908:	4a5000ef          	jal	ra,25ac <strcmp>
    190c:	87aa                	mv	a5,a0
    190e:	e3a9                	bnez	a5,1950 <execute_command+0x256>
C:\Users\x-luo\proj\hw4\SW\riscv_mc_helloworld\Debug/../src/parse_input.c:90 (discriminator 1)
    1910:	fcc42703          	lw	a4,-52(s0)
    1914:	478d                	li	a5,3
    1916:	02f71d63          	bne	a4,a5,1950 <execute_command+0x256>
C:\Users\x-luo\proj\hw4\SW\riscv_mc_helloworld\Debug/../src/parse_input.c:91
    	if( addr%4 == 0 ){
    191a:	fc442783          	lw	a5,-60(s0)
    191e:	8b8d                	andi	a5,a5,3
    1920:	e39d                	bnez	a5,1946 <execute_command+0x24c>
C:\Users\x-luo\proj\hw4\SW\riscv_mc_helloworld\Debug/../src/parse_input.c:92
    		printf("Writing value(4 bytes) %x to address 0x%x\n", val, addr);
    1922:	fc442603          	lw	a2,-60(s0)
    1926:	fc042583          	lw	a1,-64(s0)
    192a:	678d                	lui	a5,0x3
    192c:	c7478513          	addi	a0,a5,-908 # 2c74 <__iob+0x3c0>
    1930:	2a11                	jal	1a44 <printf>
C:\Users\x-luo\proj\hw4\SW\riscv_mc_helloworld\Debug/../src/parse_input.c:93
    		uint32_t *p = (uint32_t*)addr;
    1932:	fc442783          	lw	a5,-60(s0)
    1936:	fcf42c23          	sw	a5,-40(s0)
C:\Users\x-luo\proj\hw4\SW\riscv_mc_helloworld\Debug/../src/parse_input.c:94
    		*p = val;
    193a:	fd842783          	lw	a5,-40(s0)
    193e:	fc042703          	lw	a4,-64(s0)
    1942:	c398                	sw	a4,0(a5)
C:\Users\x-luo\proj\hw4\SW\riscv_mc_helloworld\Debug/../src/parse_input.c:91
    	if( addr%4 == 0 ){
    1944:	a0d1                	j	1a08 <execute_command+0x30e>
C:\Users\x-luo\proj\hw4\SW\riscv_mc_helloworld\Debug/../src/parse_input.c:96
    	}else{
    		printf("address must align 4 bytes, in order to write uint32\n");
    1946:	678d                	lui	a5,0x3
    1948:	bcc78513          	addi	a0,a5,-1076 # 2bcc <__iob+0x318>
    194c:	2225                	jal	1a74 <puts>
C:\Users\x-luo\proj\hw4\SW\riscv_mc_helloworld\Debug/../src/parse_input.c:91
    	if( addr%4 == 0 ){
    194e:	a86d                	j	1a08 <execute_command+0x30e>
C:\Users\x-luo\proj\hw4\SW\riscv_mc_helloworld\Debug/../src/parse_input.c:99
    	}
    } else
    if (strcmp(cmd, "w16") == 0 && items_count == 3) {
    1950:	678d                	lui	a5,0x3
    1952:	ca078593          	addi	a1,a5,-864 # 2ca0 <__iob+0x3ec>
    1956:	fc842503          	lw	a0,-56(s0)
    195a:	453000ef          	jal	ra,25ac <strcmp>
    195e:	87aa                	mv	a5,a0
    1960:	e3a1                	bnez	a5,19a0 <execute_command+0x2a6>
C:\Users\x-luo\proj\hw4\SW\riscv_mc_helloworld\Debug/../src/parse_input.c:99 (discriminator 1)
    1962:	fcc42703          	lw	a4,-52(s0)
    1966:	478d                	li	a5,3
    1968:	02f71c63          	bne	a4,a5,19a0 <execute_command+0x2a6>
C:\Users\x-luo\proj\hw4\SW\riscv_mc_helloworld\Debug/../src/parse_input.c:100
        printf("Writing value(2 bytes) %x to address 0x%x\n", val, addr);
    196c:	fc442603          	lw	a2,-60(s0)
    1970:	fc042583          	lw	a1,-64(s0)
    1974:	678d                	lui	a5,0x3
    1976:	ca478513          	addi	a0,a5,-860 # 2ca4 <__iob+0x3f0>
    197a:	20e9                	jal	1a44 <printf>
C:\Users\x-luo\proj\hw4\SW\riscv_mc_helloworld\Debug/../src/parse_input.c:101
        uint16_t *p = (uint16_t*)&memory[addr];
    197c:	fc442703          	lw	a4,-60(s0)
    1980:	678d                	lui	a5,0x3
    1982:	d3478793          	addi	a5,a5,-716 # 2d34 <memory>
    1986:	97ba                	add	a5,a5,a4
    1988:	fcf42a23          	sw	a5,-44(s0)
C:\Users\x-luo\proj\hw4\SW\riscv_mc_helloworld\Debug/../src/parse_input.c:102
        *p = val;
    198c:	fc042783          	lw	a5,-64(s0)
    1990:	01079713          	slli	a4,a5,0x10
    1994:	8341                	srli	a4,a4,0x10
    1996:	fd442783          	lw	a5,-44(s0)
    199a:	00e79023          	sh	a4,0(a5)
C:\Users\x-luo\proj\hw4\SW\riscv_mc_helloworld\Debug/../src/parse_input.c:99
    if (strcmp(cmd, "w16") == 0 && items_count == 3) {
    199e:	a0ad                	j	1a08 <execute_command+0x30e>
C:\Users\x-luo\proj\hw4\SW\riscv_mc_helloworld\Debug/../src/parse_input.c:104
    } else
    if (strcmp(cmd, "w8") == 0 && items_count == 3) {
    19a0:	678d                	lui	a5,0x3
    19a2:	cd078593          	addi	a1,a5,-816 # 2cd0 <__iob+0x41c>
    19a6:	fc842503          	lw	a0,-56(s0)
    19aa:	403000ef          	jal	ra,25ac <strcmp>
    19ae:	87aa                	mv	a5,a0
    19b0:	ef9d                	bnez	a5,19ee <execute_command+0x2f4>
C:\Users\x-luo\proj\hw4\SW\riscv_mc_helloworld\Debug/../src/parse_input.c:104 (discriminator 1)
    19b2:	fcc42703          	lw	a4,-52(s0)
    19b6:	478d                	li	a5,3
    19b8:	02f71b63          	bne	a4,a5,19ee <execute_command+0x2f4>
C:\Users\x-luo\proj\hw4\SW\riscv_mc_helloworld\Debug/../src/parse_input.c:105
        printf("Writing value(1 byte) %x to address 0x%x\n", val, addr);
    19bc:	fc442603          	lw	a2,-60(s0)
    19c0:	fc042583          	lw	a1,-64(s0)
    19c4:	678d                	lui	a5,0x3
    19c6:	cd478513          	addi	a0,a5,-812 # 2cd4 <__iob+0x420>
    19ca:	28ad                	jal	1a44 <printf>
C:\Users\x-luo\proj\hw4\SW\riscv_mc_helloworld\Debug/../src/parse_input.c:106
        uint8_t *p = (uint8_t*)&memory[addr];
    19cc:	fc442703          	lw	a4,-60(s0)
    19d0:	678d                	lui	a5,0x3
    19d2:	d3478793          	addi	a5,a5,-716 # 2d34 <memory>
    19d6:	97ba                	add	a5,a5,a4
    19d8:	fcf42823          	sw	a5,-48(s0)
C:\Users\x-luo\proj\hw4\SW\riscv_mc_helloworld\Debug/../src/parse_input.c:107
        *p = val;
    19dc:	fc042783          	lw	a5,-64(s0)
    19e0:	0ff7f713          	zext.b	a4,a5
    19e4:	fd042783          	lw	a5,-48(s0)
    19e8:	00e78023          	sb	a4,0(a5)
C:\Users\x-luo\proj\hw4\SW\riscv_mc_helloworld\Debug/../src/parse_input.c:104
    if (strcmp(cmd, "w8") == 0 && items_count == 3) {
    19ec:	a831                	j	1a08 <execute_command+0x30e>
C:\Users\x-luo\proj\hw4\SW\riscv_mc_helloworld\Debug/../src/parse_input.c:109
    } else
    if (strcmp(cmd, "?") == 0) {
    19ee:	678d                	lui	a5,0x3
    19f0:	d0078593          	addi	a1,a5,-768 # 2d00 <__iob+0x44c>
    19f4:	fc842503          	lw	a0,-56(s0)
    19f8:	3b5000ef          	jal	ra,25ac <strcmp>
    19fc:	87aa                	mv	a5,a0
    19fe:	e399                	bnez	a5,1a04 <execute_command+0x30a>
C:\Users\x-luo\proj\hw4\SW\riscv_mc_helloworld\Debug/../src/parse_input.c:110
        help();
    1a00:	31c5                	jal	16e0 <help>
C:\Users\x-luo\proj\hw4\SW\riscv_mc_helloworld\Debug/../src/parse_input.c:115
    }
    else {
        help();
    }
}
    1a02:	a019                	j	1a08 <execute_command+0x30e>
C:\Users\x-luo\proj\hw4\SW\riscv_mc_helloworld\Debug/../src/parse_input.c:113
        help();
    1a04:	39f1                	jal	16e0 <help>
C:\Users\x-luo\proj\hw4\SW\riscv_mc_helloworld\Debug/../src/parse_input.c:115
}
    1a06:	a009                	j	1a08 <execute_command+0x30e>
    1a08:	0001                	nop
    1a0a:	50f2                	lw	ra,60(sp)
    1a0c:	5462                	lw	s0,56(sp)
    1a0e:	6121                	addi	sp,sp,64
    1a10:	8082                	ret

00001a12 <trap_init>:
trap_init():
C:\Users\x-luo\proj\hw4\SW\riscv_mc_helloworld\Debug/../src/utils.c:46

#include "utils.h"
#include "sys_platform.h"

void __attribute__ ((weak)) trap_init()
{
    1a12:	1141                	addi	sp,sp,-16
    1a14:	c622                	sw	s0,12(sp)
    1a16:	0800                	addi	s0,sp,16
C:\Users\x-luo\proj\hw4\SW\riscv_mc_helloworld\Debug/../src/utils.c:48

}
    1a18:	0001                	nop
    1a1a:	4432                	lw	s0,12(sp)
    1a1c:	0141                	addi	sp,sp,16
    1a1e:	8082                	ret

00001a20 <strncpy>:
strncpy():
    1a20:	5e5002ef          	jal	t0,2804 <__riscv_save_0>
    1a24:	842a                	mv	s0,a0
    1a26:	ca09                	beqz	a2,1a38 <strncpy+0x18>
    1a28:	0005c783          	lbu	a5,0(a1)
    1a2c:	0585                	addi	a1,a1,1
    1a2e:	0505                	addi	a0,a0,1
    1a30:	fef50fa3          	sb	a5,-1(a0) # fffeffff <_stack_start+0xfffec5cf>
    1a34:	167d                	addi	a2,a2,-1
    1a36:	fbe5                	bnez	a5,1a26 <strncpy+0x6>
    1a38:	4581                	li	a1,0
    1a3a:	2cb000ef          	jal	ra,2504 <memset>
    1a3e:	8522                	mv	a0,s0
    1a40:	5e90006f          	j	2828 <__riscv_restore_0>

00001a44 <printf>:
printf():
    1a44:	7139                	addi	sp,sp,-64
    1a46:	da3e                	sw	a5,52(sp)
    1a48:	678d                	lui	a5,0x3
    1a4a:	d22e                	sw	a1,36(sp)
    1a4c:	85aa                	mv	a1,a0
    1a4e:	8b87a503          	lw	a0,-1864(a5) # 28b8 <__iob+0x4>
    1a52:	d432                	sw	a2,40(sp)
    1a54:	1050                	addi	a2,sp,36
    1a56:	ce06                	sw	ra,28(sp)
    1a58:	d636                	sw	a3,44(sp)
    1a5a:	d83a                	sw	a4,48(sp)
    1a5c:	dc42                	sw	a6,56(sp)
    1a5e:	de46                	sw	a7,60(sp)
    1a60:	c632                	sw	a2,12(sp)
    1a62:	28d9                	jal	1b38 <vfprintf>
    1a64:	40f2                	lw	ra,28(sp)
    1a66:	6121                	addi	sp,sp,64
    1a68:	8082                	ret

00001a6a <putchar>:
putchar():
    1a6a:	678d                	lui	a5,0x3
    1a6c:	8b87a583          	lw	a1,-1864(a5) # 28b8 <__iob+0x4>
    1a70:	4fb0006f          	j	276a <fputc>

00001a74 <puts>:
puts():
    1a74:	591002ef          	jal	t0,2804 <__riscv_save_0>
    1a78:	678d                	lui	a5,0x3
    1a7a:	8b87a583          	lw	a1,-1864(a5) # 28b8 <__iob+0x4>
    1a7e:	1141                	addi	sp,sp,-16
    1a80:	842a                	mv	s0,a0
    1a82:	0045c783          	lbu	a5,4(a1)
    1a86:	4481                	li	s1,0
    1a88:	8b89                	andi	a5,a5,2
    1a8a:	eb99                	bnez	a5,1aa0 <puts+0x2c>
    1a8c:	54fd                	li	s1,-1
    1a8e:	8526                	mv	a0,s1
    1a90:	0141                	addi	sp,sp,16
    1a92:	5970006f          	j	2828 <__riscv_restore_0>
    1a96:	c62e                	sw	a1,12(sp)
    1a98:	9782                	jalr	a5
    1a9a:	45b2                	lw	a1,12(sp)
    1a9c:	c111                	beqz	a0,1aa0 <puts+0x2c>
    1a9e:	54fd                	li	s1,-1
    1aa0:	00044503          	lbu	a0,0(s0)
    1aa4:	0405                	addi	s0,s0,1
    1aa6:	459c                	lw	a5,8(a1)
    1aa8:	f57d                	bnez	a0,1a96 <puts+0x22>
    1aaa:	4529                	li	a0,10
    1aac:	9782                	jalr	a5
    1aae:	d165                	beqz	a0,1a8e <puts+0x1a>
    1ab0:	bff1                	j	1a8c <puts+0x18>

00001ab2 <sscanf>:
sscanf():
    1ab2:	711d                	addi	sp,sp,-96
    1ab4:	dc22                	sw	s0,56(sp)
    1ab6:	da26                	sw	s1,52(sp)
    1ab8:	842e                	mv	s0,a1
    1aba:	84aa                	mv	s1,a0
    1abc:	c4b2                	sw	a2,72(sp)
    1abe:	4581                	li	a1,0
    1ac0:	02000613          	li	a2,32
    1ac4:	0808                	addi	a0,sp,16
    1ac6:	de06                	sw	ra,60(sp)
    1ac8:	c6b6                	sw	a3,76(sp)
    1aca:	c8ba                	sw	a4,80(sp)
    1acc:	cabe                	sw	a5,84(sp)
    1ace:	ccc2                	sw	a6,88(sp)
    1ad0:	cec6                	sw	a7,92(sp)
    1ad2:	233000ef          	jal	ra,2504 <memset>
    1ad6:	4785                	li	a5,1
    1ad8:	00f10a23          	sb	a5,20(sp)
    1adc:	6789                	lui	a5,0x2
    1ade:	00b0                	addi	a2,sp,72
    1ae0:	75678793          	addi	a5,a5,1878 # 2756 <__file_str_get>
    1ae4:	85a2                	mv	a1,s0
    1ae6:	0808                	addi	a0,sp,16
    1ae8:	d226                	sw	s1,36(sp)
    1aea:	ce3e                	sw	a5,28(sp)
    1aec:	c632                	sw	a2,12(sp)
    1aee:	2b51                	jal	2082 <vfscanf>
    1af0:	50f2                	lw	ra,60(sp)
    1af2:	5462                	lw	s0,56(sp)
    1af4:	54d2                	lw	s1,52(sp)
    1af6:	6125                	addi	sp,sp,96
    1af8:	8082                	ret

00001afa <__ultoa_invert>:
__ultoa_invert():
    1afa:	20067793          	andi	a5,a2,512
    1afe:	872a                	mv	a4,a0
    1b00:	852e                	mv	a0,a1
    1b02:	02700593          	li	a1,39
    1b06:	c781                	beqz	a5,1b0e <__ultoa_invert+0x14>
    1b08:	dff67613          	andi	a2,a2,-513
    1b0c:	459d                	li	a1,7
    1b0e:	4825                	li	a6,9
    1b10:	86ba                	mv	a3,a4
    1b12:	02c6f7b3          	remu	a5,a3,a2
    1b16:	0ff7f793          	zext.b	a5,a5
    1b1a:	02c75733          	divu	a4,a4,a2
    1b1e:	00f87563          	bgeu	a6,a5,1b28 <__ultoa_invert+0x2e>
    1b22:	97ae                	add	a5,a5,a1
    1b24:	0ff7f793          	zext.b	a5,a5
    1b28:	0505                	addi	a0,a0,1
    1b2a:	03078793          	addi	a5,a5,48
    1b2e:	fef50fa3          	sb	a5,-1(a0)
    1b32:	fcc6ffe3          	bgeu	a3,a2,1b10 <__ultoa_invert+0x16>
    1b36:	8082                	ret

00001b38 <vfprintf>:
vfprintf():
    1b38:	49d002ef          	jal	t0,27d4 <__riscv_save_12>
    1b3c:	00454783          	lbu	a5,4(a0)
    1b40:	1101                	addi	sp,sp,-32
    1b42:	597d                	li	s2,-1
    1b44:	8b89                	andi	a5,a5,2
    1b46:	48078d63          	beqz	a5,1fe0 <vfprintf+0x4a8>
    1b4a:	67c1                	lui	a5,0x10
    1b4c:	17fd                	addi	a5,a5,-1
    1b4e:	8aaa                	mv	s5,a0
    1b50:	8a32                	mv	s4,a2
    1b52:	4901                	li	s2,0
    1b54:	01410c13          	addi	s8,sp,20
    1b58:	6c85                	lui	s9,0x1
    1b5a:	c43e                	sw	a5,8(sp)
    1b5c:	0005c483          	lbu	s1,0(a1)
    1b60:	48048063          	beqz	s1,1fe0 <vfprintf+0x4a8>
    1b64:	02500793          	li	a5,37
    1b68:	00158b93          	addi	s7,a1,1
    1b6c:	00f49863          	bne	s1,a5,1b7c <vfprintf+0x44>
    1b70:	0015c483          	lbu	s1,1(a1)
    1b74:	00258b93          	addi	s7,a1,2
    1b78:	00f49863          	bne	s1,a5,1b88 <vfprintf+0x50>
    1b7c:	0905                	addi	s2,s2,1
    1b7e:	85d6                	mv	a1,s5
    1b80:	8526                	mv	a0,s1
    1b82:	3e9000ef          	jal	ra,276a <fputc>
    1b86:	a295                	j	1cea <vfprintf+0x1b2>
    1b88:	4981                	li	s3,0
    1b8a:	4b01                	li	s6,0
    1b8c:	4401                	li	s0,0
    1b8e:	467d                	li	a2,31
    1b90:	06c00593          	li	a1,108
    1b94:	06800513          	li	a0,104
    1b98:	06a00813          	li	a6,106
    1b9c:	07400893          	li	a7,116
    1ba0:	4325                	li	t1,9
    1ba2:	02a00e13          	li	t3,42
    1ba6:	02e00e93          	li	t4,46
    1baa:	4729                	li	a4,10
    1bac:	07f00f13          	li	t5,127
    1bb0:	02b00693          	li	a3,43
    1bb4:	02d00f93          	li	t6,45
    1bb8:	03000293          	li	t0,48
    1bbc:	02000393          	li	t2,32
    1bc0:	02300d93          	li	s11,35
    1bc4:	04866d63          	bltu	a2,s0,1c1e <vfprintf+0xe6>
    1bc8:	04d48063          	beq	s1,a3,1c08 <vfprintf+0xd0>
    1bcc:	0296e363          	bltu	a3,s1,1bf2 <vfprintf+0xba>
    1bd0:	02748e63          	beq	s1,t2,1c0c <vfprintf+0xd4>
    1bd4:	05b48263          	beq	s1,s11,1c18 <vfprintf+0xe0>
    1bd8:	fd048793          	addi	a5,s1,-48
    1bdc:	0ff7f793          	zext.b	a5,a5
    1be0:	04f36c63          	bltu	t1,a5,1c38 <vfprintf+0x100>
    1be4:	04047493          	andi	s1,s0,64
    1be8:	c0b1                	beqz	s1,1c2c <vfprintf+0xf4>
    1bea:	02e989b3          	mul	s3,s3,a4
    1bee:	99be                	add	s3,s3,a5
    1bf0:	a039                	j	1bfe <vfprintf+0xc6>
    1bf2:	03f48063          	beq	s1,t6,1c12 <vfprintf+0xda>
    1bf6:	fe5491e3          	bne	s1,t0,1bd8 <vfprintf+0xa0>
    1bfa:	00146413          	ori	s0,s0,1
    1bfe:	000bc483          	lbu	s1,0(s7)
    1c02:	0b85                	addi	s7,s7,1
    1c04:	f0e1                	bnez	s1,1bc4 <vfprintf+0x8c>
    1c06:	a069                	j	1c90 <vfprintf+0x158>
    1c08:	00246413          	ori	s0,s0,2
    1c0c:	00446413          	ori	s0,s0,4
    1c10:	b7fd                	j	1bfe <vfprintf+0xc6>
    1c12:	00846413          	ori	s0,s0,8
    1c16:	b7e5                	j	1bfe <vfprintf+0xc6>
    1c18:	01046413          	ori	s0,s0,16
    1c1c:	b7cd                	j	1bfe <vfprintf+0xc6>
    1c1e:	fa8f7de3          	bgeu	t5,s0,1bd8 <vfprintf+0xa0>
    1c22:	04b49763          	bne	s1,a1,1c70 <vfprintf+0x138>
    1c26:	08046413          	ori	s0,s0,128
    1c2a:	bfd1                	j	1bfe <vfprintf+0xc6>
    1c2c:	02eb0b33          	mul	s6,s6,a4
    1c30:	02046413          	ori	s0,s0,32
    1c34:	9b3e                	add	s6,s6,a5
    1c36:	b7e1                	j	1bfe <vfprintf+0xc6>
    1c38:	03c49363          	bne	s1,t3,1c5e <vfprintf+0x126>
    1c3c:	04047493          	andi	s1,s0,64
    1c40:	000a2783          	lw	a5,0(s4)
    1c44:	0a11                	addi	s4,s4,4
    1c46:	e4c5                	bnez	s1,1cee <vfprintf+0x1b6>
    1c48:	0007c663          	bltz	a5,1c54 <vfprintf+0x11c>
    1c4c:	02046413          	ori	s0,s0,32
    1c50:	8b3e                	mv	s6,a5
    1c52:	b775                	j	1bfe <vfprintf+0xc6>
    1c54:	40f00b33          	neg	s6,a5
    1c58:	02846413          	ori	s0,s0,40
    1c5c:	b74d                	j	1bfe <vfprintf+0xc6>
    1c5e:	fdd492e3          	bne	s1,t4,1c22 <vfprintf+0xea>
    1c62:	04047793          	andi	a5,s0,64
    1c66:	36079d63          	bnez	a5,1fe0 <vfprintf+0x4a8>
    1c6a:	04046413          	ori	s0,s0,64
    1c6e:	bf41                	j	1bfe <vfprintf+0xc6>
    1c70:	00a49a63          	bne	s1,a0,1c84 <vfprintf+0x14c>
    1c74:	10047793          	andi	a5,s0,256
    1c78:	c399                	beqz	a5,1c7e <vfprintf+0x146>
    1c7a:	20046413          	ori	s0,s0,512
    1c7e:	10046413          	ori	s0,s0,256
    1c82:	bfb5                	j	1bfe <vfprintf+0xc6>
    1c84:	0ef4f793          	andi	a5,s1,239
    1c88:	f7078be3          	beq	a5,a6,1bfe <vfprintf+0xc6>
    1c8c:	f71489e3          	beq	s1,a7,1bfe <vfprintf+0xc6>
    1c90:	0009d763          	bgez	s3,1c9e <vfprintf+0x166>
    1c94:	fbf47413          	andi	s0,s0,-65
    1c98:	0442                	slli	s0,s0,0x10
    1c9a:	8041                	srli	s0,s0,0x10
    1c9c:	4981                	li	s3,0
    1c9e:	0204e793          	ori	a5,s1,32
    1ca2:	f9b78713          	addi	a4,a5,-101 # ff9b <_stack_start+0xc56b>
    1ca6:	0ff77713          	zext.b	a4,a4
    1caa:	4689                	li	a3,2
    1cac:	00e6f663          	bgeu	a3,a4,1cb8 <vfprintf+0x180>
    1cb0:	06100713          	li	a4,97
    1cb4:	02e79f63          	bne	a5,a4,1cf2 <vfprintf+0x1ba>
    1cb8:	007a0493          	addi	s1,s4,7
    1cbc:	98e1                	andi	s1,s1,-8
    1cbe:	678d                	lui	a5,0x3
    1cc0:	04a1                	addi	s1,s1,8
    1cc2:	4a1d                	li	s4,7
    1cc4:	d0c78d93          	addi	s11,a5,-756 # 2d0c <__iob+0x458>
    1cc8:	8821                	andi	s0,s0,8
    1cca:	c441                	beqz	s0,1d52 <vfprintf+0x21a>
    1ccc:	414b0b33          	sub	s6,s6,s4
    1cd0:	014d8433          	add	s0,s11,s4
    1cd4:	088d9263          	bne	s11,s0,1d58 <vfprintf+0x220>
    1cd8:	9952                	add	s2,s2,s4
    1cda:	845a                	mv	s0,s6
    1cdc:	2e804b63          	bgtz	s0,1fd2 <vfprintf+0x49a>
    1ce0:	000b5363          	bgez	s6,1ce6 <vfprintf+0x1ae>
    1ce4:	4b01                	li	s6,0
    1ce6:	995a                	add	s2,s2,s6
    1ce8:	8a26                	mv	s4,s1
    1cea:	85de                	mv	a1,s7
    1cec:	bd85                	j	1b5c <vfprintf+0x24>
    1cee:	89be                	mv	s3,a5
    1cf0:	b739                	j	1bfe <vfprintf+0xc6>
    1cf2:	06300713          	li	a4,99
    1cf6:	00e49c63          	bne	s1,a4,1d0e <vfprintf+0x1d6>
    1cfa:	000a2783          	lw	a5,0(s4)
    1cfe:	004a0493          	addi	s1,s4,4
    1d02:	01410d93          	addi	s11,sp,20
    1d06:	00f10a23          	sb	a5,20(sp)
    1d0a:	4a05                	li	s4,1
    1d0c:	bf75                	j	1cc8 <vfprintf+0x190>
    1d0e:	07300713          	li	a4,115
    1d12:	04e49a63          	bne	s1,a4,1d66 <vfprintf+0x22e>
    1d16:	000a2d83          	lw	s11,0(s4)
    1d1a:	004a0493          	addi	s1,s4,4
    1d1e:	000d9563          	bnez	s11,1d28 <vfprintf+0x1f0>
    1d22:	678d                	lui	a5,0x3
    1d24:	d0478d93          	addi	s11,a5,-764 # 2d04 <__iob+0x450>
    1d28:	04047793          	andi	a5,s0,64
    1d2c:	55fd                	li	a1,-1
    1d2e:	c391                	beqz	a5,1d32 <vfprintf+0x1fa>
    1d30:	85ce                	mv	a1,s3
    1d32:	856e                	mv	a0,s11
    1d34:	1c3000ef          	jal	ra,26f6 <strnlen>
    1d38:	8a2a                	mv	s4,a0
    1d3a:	b779                	j	1cc8 <vfprintf+0x190>
    1d3c:	85d6                	mv	a1,s5
    1d3e:	02000513          	li	a0,32
    1d42:	229000ef          	jal	ra,276a <fputc>
    1d46:	1b7d                	addi	s6,s6,-1
    1d48:	41640933          	sub	s2,s0,s6
    1d4c:	ff6a68e3          	bltu	s4,s6,1d3c <vfprintf+0x204>
    1d50:	bfb5                	j	1ccc <vfprintf+0x194>
    1d52:	012b0433          	add	s0,s6,s2
    1d56:	bfcd                	j	1d48 <vfprintf+0x210>
    1d58:	000dc503          	lbu	a0,0(s11)
    1d5c:	85d6                	mv	a1,s5
    1d5e:	0d85                	addi	s11,s11,1
    1d60:	20b000ef          	jal	ra,276a <fputc>
    1d64:	bf85                	j	1cd4 <vfprintf+0x19c>
    1d66:	06400713          	li	a4,100
    1d6a:	00e48663          	beq	s1,a4,1d76 <vfprintf+0x23e>
    1d6e:	06900713          	li	a4,105
    1d72:	04e49e63          	bne	s1,a4,1dce <vfprintf+0x296>
    1d76:	08047793          	andi	a5,s0,128
    1d7a:	000a2503          	lw	a0,0(s4)
    1d7e:	004a0493          	addi	s1,s4,4
    1d82:	cb95                	beqz	a5,1db6 <vfprintf+0x27e>
    1d84:	00055663          	bgez	a0,1d90 <vfprintf+0x258>
    1d88:	40a00533          	neg	a0,a0
    1d8c:	40046413          	ori	s0,s0,1024
    1d90:	fef47793          	andi	a5,s0,-17
    1d94:	01079d13          	slli	s10,a5,0x10
    1d98:	04047413          	andi	s0,s0,64
    1d9c:	010d5d13          	srli	s10,s10,0x10
    1da0:	c409                	beqz	s0,1daa <vfprintf+0x272>
    1da2:	00a9ea33          	or	s4,s3,a0
    1da6:	060a0e63          	beqz	s4,1e22 <vfprintf+0x2ea>
    1daa:	4629                	li	a2,10
    1dac:	85e2                	mv	a1,s8
    1dae:	33b1                	jal	1afa <__ultoa_invert>
    1db0:	41850a33          	sub	s4,a0,s8
    1db4:	a0bd                	j	1e22 <vfprintf+0x2ea>
    1db6:	10047793          	andi	a5,s0,256
    1dba:	d7e9                	beqz	a5,1d84 <vfprintf+0x24c>
    1dbc:	20047793          	andi	a5,s0,512
    1dc0:	c781                	beqz	a5,1dc8 <vfprintf+0x290>
    1dc2:	0562                	slli	a0,a0,0x18
    1dc4:	8561                	srai	a0,a0,0x18
    1dc6:	bf7d                	j	1d84 <vfprintf+0x24c>
    1dc8:	0542                	slli	a0,a0,0x10
    1dca:	8541                	srai	a0,a0,0x10
    1dcc:	bf65                	j	1d84 <vfprintf+0x24c>
    1dce:	07500713          	li	a4,117
    1dd2:	10e49463          	bne	s1,a4,1eda <vfprintf+0x3a2>
    1dd6:	983d                	andi	s0,s0,-17
    1dd8:	0442                	slli	s0,s0,0x10
    1dda:	8041                	srli	s0,s0,0x10
    1ddc:	4629                	li	a2,10
    1dde:	08047793          	andi	a5,s0,128
    1de2:	000a2503          	lw	a0,0(s4)
    1de6:	004a0493          	addi	s1,s4,4
    1dea:	eb91                	bnez	a5,1dfe <vfprintf+0x2c6>
    1dec:	10047793          	andi	a5,s0,256
    1df0:	c799                	beqz	a5,1dfe <vfprintf+0x2c6>
    1df2:	20047793          	andi	a5,s0,512
    1df6:	12078b63          	beqz	a5,1f2c <vfprintf+0x3f4>
    1dfa:	0ff57513          	zext.b	a0,a0
    1dfe:	ff947793          	andi	a5,s0,-7
    1e02:	01079d13          	slli	s10,a5,0x10
    1e06:	04047713          	andi	a4,s0,64
    1e0a:	010d5d13          	srli	s10,s10,0x10
    1e0e:	df59                	beqz	a4,1dac <vfprintf+0x274>
    1e10:	00a9e733          	or	a4,s3,a0
    1e14:	ff41                	bnez	a4,1dac <vfprintf+0x274>
    1e16:	9825                	andi	s0,s0,-23
    1e18:	01041d13          	slli	s10,s0,0x10
    1e1c:	010d5d13          	srli	s10,s10,0x10
    1e20:	4a01                	li	s4,0
    1e22:	040d7713          	andi	a4,s10,64
    1e26:	10070663          	beqz	a4,1f32 <vfprintf+0x3fa>
    1e2a:	ffed7d93          	andi	s11,s10,-2
    1e2e:	0dc2                	slli	s11,s11,0x10
    1e30:	010ddd93          	srli	s11,s11,0x10
    1e34:	8452                	mv	s0,s4
    1e36:	013a5d63          	bge	s4,s3,1e50 <vfprintf+0x318>
    1e3a:	6705                	lui	a4,0x1
    1e3c:	00ed7733          	and	a4,s10,a4
    1e40:	844e                	mv	s0,s3
    1e42:	e719                	bnez	a4,1e50 <vfprintf+0x318>
    1e44:	feed7793          	andi	a5,s10,-18
    1e48:	01079d93          	slli	s11,a5,0x10
    1e4c:	010ddd93          	srli	s11,s11,0x10
    1e50:	010df793          	andi	a5,s11,16
    1e54:	0e078a63          	beqz	a5,1f48 <vfprintf+0x410>
    1e58:	101c                	addi	a5,sp,32
    1e5a:	97d2                	add	a5,a5,s4
    1e5c:	ff37c703          	lbu	a4,-13(a5)
    1e60:	03000793          	li	a5,48
    1e64:	0cf71a63          	bne	a4,a5,1f38 <vfprintf+0x400>
    1e68:	fefdfd93          	andi	s11,s11,-17
    1e6c:	0dc2                	slli	s11,s11,0x10
    1e6e:	010ddd93          	srli	s11,s11,0x10
    1e72:	008df793          	andi	a5,s11,8
    1e76:	ef89                	bnez	a5,1e90 <vfprintf+0x358>
    1e78:	001df793          	andi	a5,s11,1
    1e7c:	0e078c63          	beqz	a5,1f74 <vfprintf+0x43c>
    1e80:	89d2                	mv	s3,s4
    1e82:	01645763          	bge	s0,s6,1e90 <vfprintf+0x358>
    1e86:	408b0433          	sub	s0,s6,s0
    1e8a:	014409b3          	add	s3,s0,s4
    1e8e:	845a                	mv	s0,s6
    1e90:	010df793          	andi	a5,s11,16
    1e94:	408b0b33          	sub	s6,s6,s0
    1e98:	10078363          	beqz	a5,1f9e <vfprintf+0x466>
    1e9c:	85d6                	mv	a1,s5
    1e9e:	03000513          	li	a0,48
    1ea2:	0c9000ef          	jal	ra,276a <fputc>
    1ea6:	00cdd793          	srli	a5,s11,0xc
    1eaa:	8b85                	andi	a5,a5,1
    1eac:	e7f1                	bnez	a5,1f78 <vfprintf+0x440>
    1eae:	0905                	addi	s2,s2,1
    1eb0:	844e                	mv	s0,s3
    1eb2:	108a4963          	blt	s4,s0,1fc4 <vfprintf+0x48c>
    1eb6:	4781                	li	a5,0
    1eb8:	0149c463          	blt	s3,s4,1ec0 <vfprintf+0x388>
    1ebc:	414987b3          	sub	a5,s3,s4
    1ec0:	993e                	add	s2,s2,a5
    1ec2:	8452                	mv	s0,s4
    1ec4:	e0040ae3          	beqz	s0,1cd8 <vfprintf+0x1a0>
    1ec8:	147d                	addi	s0,s0,-1
    1eca:	008c07b3          	add	a5,s8,s0
    1ece:	0007c503          	lbu	a0,0(a5)
    1ed2:	85d6                	mv	a1,s5
    1ed4:	097000ef          	jal	ra,276a <fputc>
    1ed8:	b7f5                	j	1ec4 <vfprintf+0x38c>
    1eda:	06f00713          	li	a4,111
    1ede:	04e48563          	beq	s1,a4,1f28 <vfprintf+0x3f0>
    1ee2:	07000713          	li	a4,112
    1ee6:	00e49763          	bne	s1,a4,1ef4 <vfprintf+0x3bc>
    1eea:	010c8793          	addi	a5,s9,16 # 1010 <timer_start+0xe>
    1eee:	8c5d                	or	s0,s0,a5
    1ef0:	4641                	li	a2,16
    1ef2:	b5f5                	j	1dde <vfprintf+0x2a6>
    1ef4:	07800713          	li	a4,120
    1ef8:	02e79163          	bne	a5,a4,1f1a <vfprintf+0x3e2>
    1efc:	05800793          	li	a5,88
    1f00:	00f48463          	beq	s1,a5,1f08 <vfprintf+0x3d0>
    1f04:	6785                	lui	a5,0x1
    1f06:	b7e5                	j	1eee <vfprintf+0x3b6>
    1f08:	6789                	lui	a5,0x2
    1f0a:	80078793          	addi	a5,a5,-2048 # 1800 <execute_command+0x106>
    1f0e:	8c5d                	or	s0,s0,a5
    1f10:	0442                	slli	s0,s0,0x10
    1f12:	8041                	srli	s0,s0,0x10
    1f14:	21000613          	li	a2,528
    1f18:	b5d9                	j	1dde <vfprintf+0x2a6>
    1f1a:	85d6                	mv	a1,s5
    1f1c:	02500513          	li	a0,37
    1f20:	04b000ef          	jal	ra,276a <fputc>
    1f24:	0909                	addi	s2,s2,2
    1f26:	b9a1                	j	1b7e <vfprintf+0x46>
    1f28:	4621                	li	a2,8
    1f2a:	bd55                	j	1dde <vfprintf+0x2a6>
    1f2c:	47a2                	lw	a5,8(sp)
    1f2e:	8d7d                	and	a0,a0,a5
    1f30:	b5f9                	j	1dfe <vfprintf+0x2c6>
    1f32:	8452                	mv	s0,s4
    1f34:	8dea                	mv	s11,s10
    1f36:	bf29                	j	1e50 <vfprintf+0x318>
    1f38:	00cdd793          	srli	a5,s11,0xc
    1f3c:	8b85                	andi	a5,a5,1
    1f3e:	e399                	bnez	a5,1f44 <vfprintf+0x40c>
    1f40:	0405                	addi	s0,s0,1
    1f42:	bf05                	j	1e72 <vfprintf+0x33a>
    1f44:	0409                	addi	s0,s0,2
    1f46:	b735                	j	1e72 <vfprintf+0x33a>
    1f48:	406df793          	andi	a5,s11,1030
    1f4c:	d39d                	beqz	a5,1e72 <vfprintf+0x33a>
    1f4e:	bfcd                	j	1f40 <vfprintf+0x408>
    1f50:	85d6                	mv	a1,s5
    1f52:	02000513          	li	a0,32
    1f56:	c63e                	sw	a5,12(sp)
    1f58:	013000ef          	jal	ra,276a <fputc>
    1f5c:	47b2                	lw	a5,12(sp)
    1f5e:	0785                	addi	a5,a5,1
    1f60:	ff67c8e3          	blt	a5,s6,1f50 <vfprintf+0x418>
    1f64:	4781                	li	a5,0
    1f66:	008b4463          	blt	s6,s0,1f6e <vfprintf+0x436>
    1f6a:	408b07b3          	sub	a5,s6,s0
    1f6e:	993e                	add	s2,s2,a5
    1f70:	943e                	add	s0,s0,a5
    1f72:	bf39                	j	1e90 <vfprintf+0x358>
    1f74:	87a2                	mv	a5,s0
    1f76:	b7ed                	j	1f60 <vfprintf+0x428>
    1f78:	6785                	lui	a5,0x1
    1f7a:	80078793          	addi	a5,a5,-2048 # 800 <uart_putc+0x88>
    1f7e:	00fdfdb3          	and	s11,s11,a5
    1f82:	0dc2                	slli	s11,s11,0x10
    1f84:	010ddd93          	srli	s11,s11,0x10
    1f88:	0909                	addi	s2,s2,2
    1f8a:	05800513          	li	a0,88
    1f8e:	000d9463          	bnez	s11,1f96 <vfprintf+0x45e>
    1f92:	07800513          	li	a0,120
    1f96:	85d6                	mv	a1,s5
    1f98:	7d2000ef          	jal	ra,276a <fputc>
    1f9c:	bf11                	j	1eb0 <vfprintf+0x378>
    1f9e:	406df793          	andi	a5,s11,1030
    1fa2:	f00787e3          	beqz	a5,1eb0 <vfprintf+0x378>
    1fa6:	002df793          	andi	a5,s11,2
    1faa:	02000513          	li	a0,32
    1fae:	c399                	beqz	a5,1fb4 <vfprintf+0x47c>
    1fb0:	02b00513          	li	a0,43
    1fb4:	400dfd93          	andi	s11,s11,1024
    1fb8:	000d8463          	beqz	s11,1fc0 <vfprintf+0x488>
    1fbc:	02d00513          	li	a0,45
    1fc0:	0905                	addi	s2,s2,1
    1fc2:	bfd1                	j	1f96 <vfprintf+0x45e>
    1fc4:	85d6                	mv	a1,s5
    1fc6:	03000513          	li	a0,48
    1fca:	7a0000ef          	jal	ra,276a <fputc>
    1fce:	147d                	addi	s0,s0,-1
    1fd0:	b5cd                	j	1eb2 <vfprintf+0x37a>
    1fd2:	85d6                	mv	a1,s5
    1fd4:	02000513          	li	a0,32
    1fd8:	792000ef          	jal	ra,276a <fputc>
    1fdc:	147d                	addi	s0,s0,-1
    1fde:	b9fd                	j	1cdc <vfprintf+0x1a4>
    1fe0:	854a                	mv	a0,s2
    1fe2:	6105                	addi	sp,sp,32
    1fe4:	02d0006f          	j	2810 <__riscv_restore_12>

00001fe8 <scanf_getc>:
    1fe8:	01d002ef          	jal	t0,2804 <__riscv_save_0>
    1fec:	842e                	mv	s0,a1
    1fee:	2705                	jal	270e <fgetc>
    1ff0:	00054563          	bltz	a0,1ffa <scanf_getc+0x12>
    1ff4:	401c                	lw	a5,0(s0)
    1ff6:	0785                	addi	a5,a5,1
    1ff8:	c01c                	sw	a5,0(s0)
    1ffa:	02f0006f          	j	2828 <__riscv_restore_0>

00001ffe <scanf_ungetc>:
    1ffe:	007002ef          	jal	t0,2804 <__riscv_save_0>
    2002:	8432                	mv	s0,a2
    2004:	786000ef          	jal	ra,278a <ungetc>
    2008:	00054563          	bltz	a0,2012 <scanf_ungetc+0x14>
    200c:	401c                	lw	a5,0(s0)
    200e:	17fd                	addi	a5,a5,-1
    2010:	c01c                	sw	a5,0(s0)
    2012:	0170006f          	j	2828 <__riscv_restore_0>

00002016 <skip_spaces>:
    2016:	7d4002ef          	jal	t0,27ea <__riscv_save_4>
    201a:	1141                	addi	sp,sp,-16
    201c:	84aa                	mv	s1,a0
    201e:	862e                	mv	a2,a1
    2020:	4991                	li	s3,4
    2022:	02000913          	li	s2,32
skip_spaces():
    2026:	85b2                	mv	a1,a2
    2028:	8526                	mv	a0,s1
    202a:	c632                	sw	a2,12(sp)
    202c:	3f75                	jal	1fe8 <scanf_getc>
    202e:	842a                	mv	s0,a0
    2030:	00054b63          	bltz	a0,2046 <skip_spaces+0x30>
    2034:	ff750793          	addi	a5,a0,-9
    2038:	4632                	lw	a2,12(sp)
    203a:	fef9f6e3          	bgeu	s3,a5,2026 <skip_spaces+0x10>
    203e:	ff2504e3          	beq	a0,s2,2026 <skip_spaces+0x10>
    2042:	85a6                	mv	a1,s1
    2044:	3f6d                	jal	1ffe <scanf_ungetc>
    2046:	8522                	mv	a0,s0
    2048:	0141                	addi	sp,sp,16
    204a:	7d40006f          	j	281e <__riscv_restore_4>

0000204e <putval>:
putval():
    204e:	0016f793          	andi	a5,a3,1
    2052:	e38d                	bnez	a5,2074 <putval+0x26>
    2054:	0106f793          	andi	a5,a3,16
    2058:	c781                	beqz	a5,2060 <putval+0x12>
    205a:	00b50023          	sb	a1,0(a0)
    205e:	8082                	ret
    2060:	0086f793          	andi	a5,a3,8
    2064:	c781                	beqz	a5,206c <putval+0x1e>
    2066:	c10c                	sw	a1,0(a0)
    2068:	c150                	sw	a2,4(a0)
    206a:	8082                	ret
    206c:	0046f793          	andi	a5,a3,4
    2070:	c399                	beqz	a5,2076 <putval+0x28>
    2072:	c10c                	sw	a1,0(a0)
    2074:	8082                	ret
    2076:	0206f693          	andi	a3,a3,32
    207a:	dee5                	beqz	a3,2072 <putval+0x24>
    207c:	00b51023          	sh	a1,0(a0)
    2080:	8082                	ret

00002082 <vfscanf>:
vfscanf():
    2082:	752002ef          	jal	t0,27d4 <__riscv_save_12>
    2086:	7179                	addi	sp,sp,-48
    2088:	8a2a                	mv	s4,a0
    208a:	8b32                	mv	s6,a2
    208c:	c602                	sw	zero,12(sp)
    208e:	4a81                	li	s5,0
    2090:	4b91                	li	s7,4
    2092:	4c85                	li	s9,1
    2094:	0005c403          	lbu	s0,0(a1)
    2098:	00158493          	addi	s1,a1,1
    209c:	c80d                	beqz	s0,20ce <vfscanf+0x4c>
    209e:	ff740793          	addi	a5,s0,-9
    20a2:	02fbf863          	bgeu	s7,a5,20d2 <vfscanf+0x50>
    20a6:	02000793          	li	a5,32
    20aa:	02f40463          	beq	s0,a5,20d2 <vfscanf+0x50>
    20ae:	02500793          	li	a5,37
    20b2:	02f40563          	beq	s0,a5,20dc <vfscanf+0x5a>
    20b6:	006c                	addi	a1,sp,12
    20b8:	8552                	mv	a0,s4
    20ba:	373d                	jal	1fe8 <scanf_getc>
    20bc:	20054a63          	bltz	a0,22d0 <vfscanf+0x24e>
    20c0:	0ff57793          	zext.b	a5,a0
    20c4:	00878a63          	beq	a5,s0,20d8 <vfscanf+0x56>
    20c8:	0070                	addi	a2,sp,12
    20ca:	85d2                	mv	a1,s4
    20cc:	3f0d                	jal	1ffe <scanf_ungetc>
    20ce:	8556                	mv	a0,s5
    20d0:	a419                	j	22d6 <vfscanf+0x254>
    20d2:	006c                	addi	a1,sp,12
    20d4:	8552                	mv	a0,s4
    20d6:	3781                	jal	2016 <skip_spaces>
    20d8:	85a6                	mv	a1,s1
    20da:	bf6d                	j	2094 <vfscanf+0x12>
    20dc:	0015c403          	lbu	s0,1(a1)
    20e0:	00258493          	addi	s1,a1,2
    20e4:	fcf409e3          	beq	s0,a5,20b6 <vfscanf+0x34>
    20e8:	02a00793          	li	a5,42
    20ec:	4901                	li	s2,0
    20ee:	00f41763          	bne	s0,a5,20fc <vfscanf+0x7a>
    20f2:	0025c403          	lbu	s0,2(a1)
    20f6:	00358493          	addi	s1,a1,3
    20fa:	4905                	li	s2,1
    20fc:	4981                	li	s3,0
    20fe:	4725                	li	a4,9
    2100:	46a9                	li	a3,10
    2102:	fd040793          	addi	a5,s0,-48
    2106:	0ff7f793          	zext.b	a5,a5
    210a:	02f77763          	bgeu	a4,a5,2138 <vfscanf+0xb6>
    210e:	00297793          	andi	a5,s2,2
    2112:	cf85                	beqz	a5,214a <vfscanf+0xc8>
    2114:	fa098de3          	beqz	s3,20ce <vfscanf+0x4c>
    2118:	06c00793          	li	a5,108
    211c:	08f40663          	beq	s0,a5,21a8 <vfscanf+0x126>
    2120:	0287e763          	bltu	a5,s0,214e <vfscanf+0xcc>
    2124:	06800793          	li	a5,104
    2128:	06f40263          	beq	s0,a5,218c <vfscanf+0x10a>
    212c:	06a00793          	li	a5,106
    2130:	08f40663          	beq	s0,a5,21bc <vfscanf+0x13a>
    2134:	e40d                	bnez	s0,215e <vfscanf+0xdc>
    2136:	bf61                	j	20ce <vfscanf+0x4c>
    2138:	02d989b3          	mul	s3,s3,a3
    213c:	0485                	addi	s1,s1,1
    213e:	00296913          	ori	s2,s2,2
    2142:	fff4c403          	lbu	s0,-1(s1)
    2146:	99be                	add	s3,s3,a5
    2148:	bf6d                	j	2102 <vfscanf+0x80>
    214a:	59fd                	li	s3,-1
    214c:	b7f1                	j	2118 <vfscanf+0x96>
    214e:	07400793          	li	a5,116
    2152:	06f40763          	beq	s0,a5,21c0 <vfscanf+0x13e>
    2156:	07a00793          	li	a5,122
    215a:	06f40363          	beq	s0,a5,21c0 <vfscanf+0x13e>
    215e:	678d                	lui	a5,0x3
    2160:	85a2                	mv	a1,s0
    2162:	d1478513          	addi	a0,a5,-748 # 2d14 <__iob+0x460>
    2166:	2b9d                	jal	26dc <strchr>
    2168:	d13d                	beqz	a0,20ce <vfscanf+0x4c>
    216a:	00197793          	andi	a5,s2,1
    216e:	4d01                	li	s10,0
    2170:	e781                	bnez	a5,2178 <vfscanf+0xf6>
    2172:	000b2d03          	lw	s10,0(s6)
    2176:	0b11                	addi	s6,s6,4
    2178:	06e00793          	li	a5,110
    217c:	04f41563          	bne	s0,a5,21c6 <vfscanf+0x144>
    2180:	45b2                	lw	a1,12(sp)
    2182:	86ca                	mv	a3,s2
    2184:	4601                	li	a2,0
    2186:	856a                	mv	a0,s10
    2188:	35d9                	jal	204e <putval>
    218a:	b7b9                	j	20d8 <vfscanf+0x56>
    218c:	0004c403          	lbu	s0,0(s1)
    2190:	00f40663          	beq	s0,a5,219c <vfscanf+0x11a>
    2194:	02096913          	ori	s2,s2,32
    2198:	0485                	addi	s1,s1,1
    219a:	bf69                	j	2134 <vfscanf+0xb2>
    219c:	03096913          	ori	s2,s2,48
    21a0:	0014c403          	lbu	s0,1(s1)
    21a4:	0489                	addi	s1,s1,2
    21a6:	b779                	j	2134 <vfscanf+0xb2>
    21a8:	0004c403          	lbu	s0,0(s1)
    21ac:	00f40563          	beq	s0,a5,21b6 <vfscanf+0x134>
    21b0:	00496913          	ori	s2,s2,4
    21b4:	b7d5                	j	2198 <vfscanf+0x116>
    21b6:	00c96913          	ori	s2,s2,12
    21ba:	b7dd                	j	21a0 <vfscanf+0x11e>
    21bc:	00896913          	ori	s2,s2,8
    21c0:	0004c403          	lbu	s0,0(s1)
    21c4:	bfd1                	j	2198 <vfscanf+0x116>
    21c6:	06300793          	li	a5,99
    21ca:	02f41b63          	bne	s0,a5,2200 <vfscanf+0x17e>
    21ce:	00297793          	andi	a5,s2,2
    21d2:	e391                	bnez	a5,21d6 <vfscanf+0x154>
    21d4:	4985                	li	s3,1
    21d6:	006c                	addi	a1,sp,12
    21d8:	8552                	mv	a0,s4
    21da:	3539                	jal	1fe8 <scanf_getc>
    21dc:	0e054a63          	bltz	a0,22d0 <vfscanf+0x24e>
    21e0:	000d0563          	beqz	s10,21ea <vfscanf+0x168>
    21e4:	00ad0023          	sb	a0,0(s10)
    21e8:	0d05                	addi	s10,s10,1
    21ea:	19fd                	addi	s3,s3,-1
    21ec:	fe0995e3          	bnez	s3,21d6 <vfscanf+0x154>
    21f0:	00197913          	andi	s2,s2,1
    21f4:	ee0912e3          	bnez	s2,20d8 <vfscanf+0x56>
    21f8:	0a85                	addi	s5,s5,1
    21fa:	0ffafa93          	zext.b	s5,s5
    21fe:	bde9                	j	20d8 <vfscanf+0x56>
    2200:	05b00793          	li	a5,91
    2204:	10f41563          	bne	s0,a5,230e <vfscanf+0x28c>
    2208:	4581                	li	a1,0
    220a:	02000613          	li	a2,32
    220e:	0808                	addi	a0,sp,16
    2210:	2cd5                	jal	2504 <memset>
    2212:	4681                	li	a3,0
    2214:	4501                	li	a0,0
    2216:	4701                	li	a4,0
    2218:	4581                	li	a1,0
    221a:	05e00813          	li	a6,94
    221e:	05d00893          	li	a7,93
    2222:	02d00313          	li	t1,45
    2226:	0004c783          	lbu	a5,0(s1)
    222a:	0485                	addi	s1,s1,1
    222c:	cfc9                	beqz	a5,22c6 <vfscanf+0x244>
    222e:	01079363          	bne	a5,a6,2234 <vfscanf+0x1b2>
    2232:	c2b9                	beqz	a3,2278 <vfscanf+0x1f6>
    2234:	02d5dd63          	bge	a1,a3,226e <vfscanf+0x1ec>
    2238:	05178763          	beq	a5,a7,2286 <vfscanf+0x204>
    223c:	02679963          	bne	a5,t1,226e <vfscanf+0x1ec>
    2240:	cf1d                	beqz	a4,227e <vfscanf+0x1fc>
    2242:	1818                	addi	a4,sp,48
    2244:	0037d613          	srli	a2,a5,0x3
    2248:	963a                	add	a2,a2,a4
    224a:	fe064e03          	lbu	t3,-32(a2)
    224e:	0077f713          	andi	a4,a5,7
    2252:	00ec9733          	sll	a4,s9,a4
    2256:	01c76733          	or	a4,a4,t3
    225a:	fee60023          	sb	a4,-32(a2)
    225e:	02a78263          	beq	a5,a0,2282 <vfscanf+0x200>
    2262:	00a7f963          	bgeu	a5,a0,2274 <vfscanf+0x1f2>
    2266:	0785                	addi	a5,a5,1
    2268:	0ff7f793          	zext.b	a5,a5
    226c:	bfd9                	j	2242 <vfscanf+0x1c0>
    226e:	fb71                	bnez	a4,2242 <vfscanf+0x1c0>
    2270:	853e                	mv	a0,a5
    2272:	bfc1                	j	2242 <vfscanf+0x1c0>
    2274:	17fd                	addi	a5,a5,-1
    2276:	bfcd                	j	2268 <vfscanf+0x1e6>
    2278:	4585                	li	a1,1
    227a:	0685                	addi	a3,a3,1
    227c:	b76d                	j	2226 <vfscanf+0x1a4>
    227e:	4705                	li	a4,1
    2280:	bfed                	j	227a <vfscanf+0x1f8>
    2282:	4701                	li	a4,0
    2284:	bfdd                	j	227a <vfscanf+0x1f8>
    2286:	c719                	beqz	a4,2294 <vfscanf+0x212>
    2288:	01514783          	lbu	a5,21(sp)
    228c:	0207e793          	ori	a5,a5,32
    2290:	00f10aa3          	sb	a5,21(sp)
    2294:	e1b9                	bnez	a1,22da <vfscanf+0x258>
    2296:	4405                	li	s0,1
    2298:	006c                	addi	a1,sp,12
    229a:	8552                	mv	a0,s4
    229c:	33b1                	jal	1fe8 <scanf_getc>
    229e:	02054363          	bltz	a0,22c4 <vfscanf+0x242>
    22a2:	0ff57693          	zext.b	a3,a0
    22a6:	0036d713          	srli	a4,a3,0x3
    22aa:	1810                	addi	a2,sp,48
    22ac:	9732                	add	a4,a4,a2
    22ae:	fe074703          	lbu	a4,-32(a4) # fe0 <timer_init+0x36>
    22b2:	00757793          	andi	a5,a0,7
    22b6:	40f757b3          	sra	a5,a4,a5
    22ba:	8b85                	andi	a5,a5,1
    22bc:	eb9d                	bnez	a5,22f2 <vfscanf+0x270>
    22be:	0070                	addi	a2,sp,12
    22c0:	85d2                	mv	a1,s4
    22c2:	3b35                	jal	1ffe <scanf_ungetc>
    22c4:	c021                	beqz	s0,2304 <vfscanf+0x282>
    22c6:	004a4783          	lbu	a5,4(s4)
    22ca:	8bb1                	andi	a5,a5,12
    22cc:	e00781e3          	beqz	a5,20ce <vfscanf+0x4c>
    22d0:	557d                	li	a0,-1
    22d2:	de0a9ee3          	bnez	s5,20ce <vfscanf+0x4c>
    22d6:	6145                	addi	sp,sp,48
    22d8:	ab25                	j	2810 <__riscv_restore_12>
    22da:	081c                	addi	a5,sp,16
    22dc:	0007c703          	lbu	a4,0(a5)
    22e0:	0785                	addi	a5,a5,1
    22e2:	fff74713          	not	a4,a4
    22e6:	fee78fa3          	sb	a4,-1(a5)
    22ea:	1818                	addi	a4,sp,48
    22ec:	fee798e3          	bne	a5,a4,22dc <vfscanf+0x25a>
    22f0:	b75d                	j	2296 <vfscanf+0x214>
    22f2:	000d0563          	beqz	s10,22fc <vfscanf+0x27a>
    22f6:	00dd0023          	sb	a3,0(s10)
    22fa:	0d05                	addi	s10,s10,1
    22fc:	19fd                	addi	s3,s3,-1
    22fe:	4401                	li	s0,0
    2300:	f8099ce3          	bnez	s3,2298 <vfscanf+0x216>
    2304:	ee0d06e3          	beqz	s10,21f0 <vfscanf+0x16e>
    2308:	000d0023          	sb	zero,0(s10)
    230c:	b5d5                	j	21f0 <vfscanf+0x16e>
    230e:	006c                	addi	a1,sp,12
    2310:	8552                	mv	a0,s4
    2312:	3311                	jal	2016 <skip_spaces>
    2314:	fa054ee3          	bltz	a0,22d0 <vfscanf+0x24e>
    2318:	06f00793          	li	a5,111
    231c:	08f40663          	beq	s0,a5,23a8 <vfscanf+0x326>
    2320:	0087ed63          	bltu	a5,s0,233a <vfscanf+0x2b8>
    2324:	06400793          	li	a5,100
    2328:	04f40463          	beq	s0,a5,2370 <vfscanf+0x2ee>
    232c:	06900793          	li	a5,105
    2330:	04f40263          	beq	s0,a5,2374 <vfscanf+0x2f2>
    2334:	10096913          	ori	s2,s2,256
    2338:	a835                	j	2374 <vfscanf+0x2f2>
    233a:	07300793          	li	a5,115
    233e:	02f41563          	bne	s0,a5,2368 <vfscanf+0x2e6>
    2342:	02000413          	li	s0,32
    2346:	006c                	addi	a1,sp,12
    2348:	8552                	mv	a0,s4
    234a:	3979                	jal	1fe8 <scanf_getc>
    234c:	fa054ce3          	bltz	a0,2304 <vfscanf+0x282>
    2350:	ff750793          	addi	a5,a0,-9
    2354:	04fbf163          	bgeu	s7,a5,2396 <vfscanf+0x314>
    2358:	02850f63          	beq	a0,s0,2396 <vfscanf+0x314>
    235c:	040d1263          	bnez	s10,23a0 <vfscanf+0x31e>
    2360:	19fd                	addi	s3,s3,-1
    2362:	fe0992e3          	bnez	s3,2346 <vfscanf+0x2c4>
    2366:	bf79                	j	2304 <vfscanf+0x282>
    2368:	07500793          	li	a5,117
    236c:	fcf414e3          	bne	s0,a5,2334 <vfscanf+0x2b2>
    2370:	08096913          	ori	s2,s2,128
    2374:	006c                	addi	a1,sp,12
    2376:	8552                	mv	a0,s4
    2378:	3985                	jal	1fe8 <scanf_getc>
    237a:	0ff57793          	zext.b	a5,a0
    237e:	02b00713          	li	a4,43
    2382:	02e78663          	beq	a5,a4,23ae <vfscanf+0x32c>
    2386:	02d00713          	li	a4,45
    238a:	20096413          	ori	s0,s2,512
    238e:	02e78163          	beq	a5,a4,23b0 <vfscanf+0x32e>
    2392:	844a                	mv	s0,s2
    2394:	a03d                	j	23c2 <vfscanf+0x340>
    2396:	0070                	addi	a2,sp,12
    2398:	85d2                	mv	a1,s4
    239a:	c65ff0ef          	jal	ra,1ffe <scanf_ungetc>
    239e:	b79d                	j	2304 <vfscanf+0x282>
    23a0:	00ad0023          	sb	a0,0(s10)
    23a4:	0d05                	addi	s10,s10,1
    23a6:	bf6d                	j	2360 <vfscanf+0x2de>
    23a8:	04096913          	ori	s2,s2,64
    23ac:	b7e1                	j	2374 <vfscanf+0x2f2>
    23ae:	844a                	mv	s0,s2
    23b0:	19fd                	addi	s3,s3,-1
    23b2:	f0098ae3          	beqz	s3,22c6 <vfscanf+0x244>
    23b6:	006c                	addi	a1,sp,12
    23b8:	8552                	mv	a0,s4
    23ba:	c2fff0ef          	jal	ra,1fe8 <scanf_getc>
    23be:	f00544e3          	bltz	a0,22c6 <vfscanf+0x244>
    23c2:	ffd47693          	andi	a3,s0,-3
    23c6:	01069c13          	slli	s8,a3,0x10
    23ca:	0c047793          	andi	a5,s0,192
    23ce:	010c5c13          	srli	s8,s8,0x10
    23d2:	ebb9                	bnez	a5,2428 <vfscanf+0x3a6>
    23d4:	0ff57793          	zext.b	a5,a0
    23d8:	03000713          	li	a4,48
    23dc:	04e79663          	bne	a5,a4,2428 <vfscanf+0x3a6>
    23e0:	fff98d93          	addi	s11,s3,-1
    23e4:	020d8963          	beqz	s11,2416 <vfscanf+0x394>
    23e8:	006c                	addi	a1,sp,12
    23ea:	8552                	mv	a0,s4
    23ec:	bfdff0ef          	jal	ra,1fe8 <scanf_getc>
    23f0:	02054363          	bltz	a0,2416 <vfscanf+0x394>
    23f4:	0df57793          	andi	a5,a0,223
    23f8:	05800713          	li	a4,88
    23fc:	02e79063          	bne	a5,a4,241c <vfscanf+0x39a>
    2400:	19f9                	addi	s3,s3,-2
    2402:	102c6c13          	ori	s8,s8,258
    2406:	00098863          	beqz	s3,2416 <vfscanf+0x394>
    240a:	006c                	addi	a1,sp,12
    240c:	8552                	mv	a0,s4
    240e:	bdbff0ef          	jal	ra,1fe8 <scanf_getc>
    2412:	00055b63          	bgez	a0,2428 <vfscanf+0x3a6>
    2416:	4401                	li	s0,0
    2418:	4d81                	li	s11,0
    241a:	a891                	j	246e <vfscanf+0x3ec>
    241c:	10047413          	andi	s0,s0,256
    2420:	c82d                	beqz	s0,2492 <vfscanf+0x410>
    2422:	002c6c13          	ori	s8,s8,2
    2426:	89ee                	mv	s3,s11
    2428:	4401                	li	s0,0
    242a:	4d81                	li	s11,0
    242c:	481d                	li	a6,7
    242e:	48a5                	li	a7,9
    2430:	4315                	li	t1,5
    2432:	fd050793          	addi	a5,a0,-48
    2436:	0ff7f793          	zext.b	a5,a5
    243a:	040c7613          	andi	a2,s8,64
    243e:	08f87363          	bgeu	a6,a5,24c4 <vfscanf+0x442>
    2442:	ee11                	bnez	a2,245e <vfscanf+0x3dc>
    2444:	04f8fd63          	bgeu	a7,a5,249e <vfscanf+0x41c>
    2448:	100c7713          	andi	a4,s8,256
    244c:	cb09                	beqz	a4,245e <vfscanf+0x3dc>
    244e:	0df7f793          	andi	a5,a5,223
    2452:	fef78713          	addi	a4,a5,-17
    2456:	0ff77713          	zext.b	a4,a4
    245a:	02e37f63          	bgeu	t1,a4,2498 <vfscanf+0x416>
    245e:	0070                	addi	a2,sp,12
    2460:	85d2                	mv	a1,s4
    2462:	b9dff0ef          	jal	ra,1ffe <scanf_ungetc>
    2466:	002c7793          	andi	a5,s8,2
    246a:	e4078ee3          	beqz	a5,22c6 <vfscanf+0x244>
    246e:	200c7793          	andi	a5,s8,512
    2472:	cb89                	beqz	a5,2484 <vfscanf+0x402>
    2474:	008037b3          	snez	a5,s0
    2478:	41b00db3          	neg	s11,s11
    247c:	40fd8db3          	sub	s11,s11,a5
    2480:	40800433          	neg	s0,s0
    2484:	86e2                	mv	a3,s8
    2486:	85a2                	mv	a1,s0
    2488:	866e                	mv	a2,s11
    248a:	856a                	mv	a0,s10
    248c:	bc3ff0ef          	jal	ra,204e <putval>
    2490:	b385                	j	21f0 <vfscanf+0x16e>
    2492:	042c6c13          	ori	s8,s8,66
    2496:	bf41                	j	2426 <vfscanf+0x3a4>
    2498:	17e5                	addi	a5,a5,-7
    249a:	0ff7f793          	zext.b	a5,a5
    249e:	100c7613          	andi	a2,s8,256
    24a2:	4711                	li	a4,4
    24a4:	e215                	bnez	a2,24c8 <vfscanf+0x446>
    24a6:	01e45613          	srli	a2,s0,0x1e
    24aa:	002d9713          	slli	a4,s11,0x2
    24ae:	8f51                	or	a4,a4,a2
    24b0:	00241613          	slli	a2,s0,0x2
    24b4:	9622                	add	a2,a2,s0
    24b6:	008635b3          	sltu	a1,a2,s0
    24ba:	9dba                	add	s11,s11,a4
    24bc:	8432                	mv	s0,a2
    24be:	9dae                	add	s11,s11,a1
    24c0:	4705                	li	a4,1
    24c2:	a019                	j	24c8 <vfscanf+0x446>
    24c4:	470d                	li	a4,3
    24c6:	de61                	beqz	a2,249e <vfscanf+0x41c>
    24c8:	177d                	addi	a4,a4,-1
    24ca:	01f45613          	srli	a2,s0,0x1f
    24ce:	0d86                	slli	s11,s11,0x1
    24d0:	0ff77713          	zext.b	a4,a4
    24d4:	01b66db3          	or	s11,a2,s11
    24d8:	0406                	slli	s0,s0,0x1
    24da:	f77d                	bnez	a4,24c8 <vfscanf+0x446>
    24dc:	97a2                	add	a5,a5,s0
    24de:	0087b733          	sltu	a4,a5,s0
    24e2:	19fd                	addi	s3,s3,-1
    24e4:	843e                	mv	s0,a5
    24e6:	9dba                	add	s11,s11,a4
    24e8:	002c6c13          	ori	s8,s8,2
    24ec:	f80981e3          	beqz	s3,246e <vfscanf+0x3ec>
    24f0:	006c                	addi	a1,sp,12
    24f2:	8552                	mv	a0,s4
    24f4:	af5ff0ef          	jal	ra,1fe8 <scanf_getc>
    24f8:	481d                	li	a6,7
    24fa:	48a5                	li	a7,9
    24fc:	4315                	li	t1,5
    24fe:	f2055ae3          	bgez	a0,2432 <vfscanf+0x3b0>
    2502:	b795                	j	2466 <vfscanf+0x3e4>

00002504 <memset>:
    2504:	433d                	li	t1,15
    2506:	872a                	mv	a4,a0
    2508:	02c37363          	bgeu	t1,a2,252e <memset+0x2a>
    250c:	00f77793          	andi	a5,a4,15
    2510:	efbd                	bnez	a5,258e <memset+0x8a>
    2512:	e5ad                	bnez	a1,257c <memset+0x78>
    2514:	ff067693          	andi	a3,a2,-16
    2518:	8a3d                	andi	a2,a2,15
    251a:	96ba                	add	a3,a3,a4
    251c:	c30c                	sw	a1,0(a4)
    251e:	c34c                	sw	a1,4(a4)
    2520:	c70c                	sw	a1,8(a4)
    2522:	c74c                	sw	a1,12(a4)
    2524:	0741                	addi	a4,a4,16
    2526:	fed76be3          	bltu	a4,a3,251c <memset+0x18>
    252a:	e211                	bnez	a2,252e <memset+0x2a>
    252c:	8082                	ret
    252e:	40c306b3          	sub	a3,t1,a2
    2532:	068a                	slli	a3,a3,0x2
    2534:	00000297          	auipc	t0,0x0
    2538:	9696                	add	a3,a3,t0
    253a:	00a68067          	jr	10(a3)
    253e:	00b70723          	sb	a1,14(a4)
    2542:	00b706a3          	sb	a1,13(a4)
    2546:	00b70623          	sb	a1,12(a4)
    254a:	00b705a3          	sb	a1,11(a4)
    254e:	00b70523          	sb	a1,10(a4)
    2552:	00b704a3          	sb	a1,9(a4)
    2556:	00b70423          	sb	a1,8(a4)
    255a:	00b703a3          	sb	a1,7(a4)
    255e:	00b70323          	sb	a1,6(a4)
    2562:	00b702a3          	sb	a1,5(a4)
    2566:	00b70223          	sb	a1,4(a4)
    256a:	00b701a3          	sb	a1,3(a4)
    256e:	00b70123          	sb	a1,2(a4)
    2572:	00b700a3          	sb	a1,1(a4)
memset():
    2576:	00b70023          	sb	a1,0(a4)
    257a:	8082                	ret
    257c:	0ff5f593          	zext.b	a1,a1
    2580:	00859693          	slli	a3,a1,0x8
    2584:	8dd5                	or	a1,a1,a3
    2586:	01059693          	slli	a3,a1,0x10
    258a:	8dd5                	or	a1,a1,a3
    258c:	b761                	j	2514 <memset+0x10>
    258e:	00279693          	slli	a3,a5,0x2
    2592:	00000297          	auipc	t0,0x0
    2596:	9696                	add	a3,a3,t0
    2598:	8286                	mv	t0,ra
    259a:	fa8680e7          	jalr	-88(a3)
    259e:	8096                	mv	ra,t0
    25a0:	17c1                	addi	a5,a5,-16
    25a2:	8f1d                	sub	a4,a4,a5
    25a4:	963e                	add	a2,a2,a5
    25a6:	f8c374e3          	bgeu	t1,a2,252e <memset+0x2a>
    25aa:	b7a5                	j	2512 <memset+0xe>

000025ac <strcmp>:
strcmp():
    25ac:	00b56733          	or	a4,a0,a1
    25b0:	53fd                	li	t2,-1
    25b2:	8b0d                	andi	a4,a4,3
    25b4:	e779                	bnez	a4,2682 <strcmp+0xd6>
    25b6:	7f7f87b7          	lui	a5,0x7f7f8
    25ba:	f7f78793          	addi	a5,a5,-129 # 7f7f7f7f <_stack_start+0x7f7f454f>
    25be:	4110                	lw	a2,0(a0)
    25c0:	4194                	lw	a3,0(a1)
    25c2:	00f672b3          	and	t0,a2,a5
    25c6:	00f66333          	or	t1,a2,a5
    25ca:	92be                	add	t0,t0,a5
    25cc:	0062e2b3          	or	t0,t0,t1
    25d0:	0c729763          	bne	t0,t2,269e <strcmp+0xf2>
    25d4:	06d61863          	bne	a2,a3,2644 <strcmp+0x98>
    25d8:	4150                	lw	a2,4(a0)
    25da:	41d4                	lw	a3,4(a1)
    25dc:	00f672b3          	and	t0,a2,a5
    25e0:	00f66333          	or	t1,a2,a5
    25e4:	92be                	add	t0,t0,a5
    25e6:	0062e2b3          	or	t0,t0,t1
    25ea:	0a729863          	bne	t0,t2,269a <strcmp+0xee>
    25ee:	04d61b63          	bne	a2,a3,2644 <strcmp+0x98>
    25f2:	4510                	lw	a2,8(a0)
    25f4:	4594                	lw	a3,8(a1)
    25f6:	00f672b3          	and	t0,a2,a5
    25fa:	00f66333          	or	t1,a2,a5
    25fe:	92be                	add	t0,t0,a5
    2600:	0062e2b3          	or	t0,t0,t1
    2604:	0a729163          	bne	t0,t2,26a6 <strcmp+0xfa>
    2608:	02d61e63          	bne	a2,a3,2644 <strcmp+0x98>
    260c:	4550                	lw	a2,12(a0)
    260e:	45d4                	lw	a3,12(a1)
    2610:	00f672b3          	and	t0,a2,a5
    2614:	00f66333          	or	t1,a2,a5
    2618:	92be                	add	t0,t0,a5
    261a:	0062e2b3          	or	t0,t0,t1
    261e:	08729a63          	bne	t0,t2,26b2 <strcmp+0x106>
    2622:	02d61163          	bne	a2,a3,2644 <strcmp+0x98>
    2626:	4910                	lw	a2,16(a0)
    2628:	4994                	lw	a3,16(a1)
    262a:	00f672b3          	and	t0,a2,a5
    262e:	00f66333          	or	t1,a2,a5
    2632:	92be                	add	t0,t0,a5
    2634:	0062e2b3          	or	t0,t0,t1
    2638:	08729363          	bne	t0,t2,26be <strcmp+0x112>
    263c:	0551                	addi	a0,a0,20
    263e:	05d1                	addi	a1,a1,20
    2640:	f6d60fe3          	beq	a2,a3,25be <strcmp+0x12>
    2644:	01061713          	slli	a4,a2,0x10
    2648:	01069793          	slli	a5,a3,0x10
    264c:	00f71c63          	bne	a4,a5,2664 <strcmp+0xb8>
    2650:	01065713          	srli	a4,a2,0x10
    2654:	0106d793          	srli	a5,a3,0x10
    2658:	40f70533          	sub	a0,a4,a5
    265c:	0ff57593          	zext.b	a1,a0
    2660:	e991                	bnez	a1,2674 <strcmp+0xc8>
    2662:	8082                	ret
    2664:	8341                	srli	a4,a4,0x10
    2666:	83c1                	srli	a5,a5,0x10
    2668:	40f70533          	sub	a0,a4,a5
    266c:	0ff57593          	zext.b	a1,a0
    2670:	e191                	bnez	a1,2674 <strcmp+0xc8>
    2672:	8082                	ret
    2674:	0ff77713          	zext.b	a4,a4
    2678:	0ff7f793          	zext.b	a5,a5
    267c:	40f70533          	sub	a0,a4,a5
    2680:	8082                	ret
    2682:	00054603          	lbu	a2,0(a0)
    2686:	0005c683          	lbu	a3,0(a1)
    268a:	0505                	addi	a0,a0,1
    268c:	0585                	addi	a1,a1,1
    268e:	00d61363          	bne	a2,a3,2694 <strcmp+0xe8>
    2692:	fa65                	bnez	a2,2682 <strcmp+0xd6>
    2694:	40d60533          	sub	a0,a2,a3
    2698:	8082                	ret
    269a:	0511                	addi	a0,a0,4
    269c:	0591                	addi	a1,a1,4
    269e:	fed612e3          	bne	a2,a3,2682 <strcmp+0xd6>
    26a2:	4501                	li	a0,0
    26a4:	8082                	ret
    26a6:	0521                	addi	a0,a0,8
    26a8:	05a1                	addi	a1,a1,8
    26aa:	fcd61ce3          	bne	a2,a3,2682 <strcmp+0xd6>
    26ae:	4501                	li	a0,0
    26b0:	8082                	ret
    26b2:	0531                	addi	a0,a0,12
    26b4:	05b1                	addi	a1,a1,12
    26b6:	fcd616e3          	bne	a2,a3,2682 <strcmp+0xd6>
    26ba:	4501                	li	a0,0
    26bc:	8082                	ret
    26be:	0541                	addi	a0,a0,16
    26c0:	05c1                	addi	a1,a1,16
    26c2:	fcd610e3          	bne	a2,a3,2682 <strcmp+0xd6>
    26c6:	4501                	li	a0,0
    26c8:	8082                	ret

000026ca <strlen>:
strlen():
    26ca:	87aa                	mv	a5,a0
    26cc:	0007c703          	lbu	a4,0(a5)
    26d0:	0785                	addi	a5,a5,1
    26d2:	ff6d                	bnez	a4,26cc <strlen+0x2>
    26d4:	40a78533          	sub	a0,a5,a0
    26d8:	157d                	addi	a0,a0,-1
    26da:	8082                	ret

000026dc <strchr>:
strchr():
    26dc:	0ff5f593          	zext.b	a1,a1
    26e0:	00054783          	lbu	a5,0(a0)
    26e4:	c791                	beqz	a5,26f0 <strchr+0x14>
    26e6:	00b79363          	bne	a5,a1,26ec <strchr+0x10>
    26ea:	8082                	ret
    26ec:	0505                	addi	a0,a0,1
    26ee:	bfcd                	j	26e0 <strchr+0x4>
    26f0:	c191                	beqz	a1,26f4 <strchr+0x18>
    26f2:	4501                	li	a0,0
    26f4:	8082                	ret

000026f6 <strnlen>:
strnlen():
    26f6:	95aa                	add	a1,a1,a0
    26f8:	87aa                	mv	a5,a0
    26fa:	00b78563          	beq	a5,a1,2704 <strnlen+0xe>
    26fe:	0007c703          	lbu	a4,0(a5)
    2702:	e701                	bnez	a4,270a <strnlen+0x14>
    2704:	40a78533          	sub	a0,a5,a0
    2708:	8082                	ret
    270a:	0785                	addi	a5,a5,1
    270c:	b7fd                	j	26fa <strnlen+0x4>

0000270e <fgetc>:
getc():
    270e:	00454783          	lbu	a5,4(a0)
    2712:	8b85                	andi	a5,a5,1
    2714:	cf9d                	beqz	a5,2752 <fgetc+0x44>
    2716:	0ee002ef          	jal	t0,2804 <__riscv_save_0>
    271a:	4581                	li	a1,0
    271c:	842a                	mv	s0,a0
    271e:	2869                	jal	27b8 <__picolibc_non_atomic_exchange_ungetc>
    2720:	c501                	beqz	a0,2728 <fgetc+0x1a>
    2722:	0ff57513          	zext.b	a0,a0
    2726:	a209                	j	2828 <__riscv_restore_0>
    2728:	445c                	lw	a5,12(s0)
    272a:	8522                	mv	a0,s0
    272c:	9782                	jalr	a5
    272e:	87aa                	mv	a5,a0
    2730:	0ff57513          	zext.b	a0,a0
    2734:	fe07d9e3          	bgez	a5,2726 <fgetc+0x18>
    2738:	567d                	li	a2,-1
    273a:	00440703          	lb	a4,4(s0)
    273e:	4691                	li	a3,4
    2740:	00c78363          	beq	a5,a2,2746 <fgetc+0x38>
    2744:	46a1                	li	a3,8
    2746:	00d767b3          	or	a5,a4,a3
    274a:	00f40223          	sb	a5,4(s0)
    274e:	557d                	li	a0,-1
    2750:	bfd9                	j	2726 <fgetc+0x18>
    2752:	557d                	li	a0,-1
    2754:	8082                	ret

00002756 <__file_str_get>:
__file_str_get():
    2756:	4958                	lw	a4,20(a0)
    2758:	87aa                	mv	a5,a0
    275a:	00074503          	lbu	a0,0(a4)
    275e:	c501                	beqz	a0,2766 <__file_str_get+0x10>
    2760:	0705                	addi	a4,a4,1
    2762:	cbd8                	sw	a4,20(a5)
    2764:	8082                	ret
    2766:	5579                	li	a0,-2
    2768:	8082                	ret

0000276a <fputc>:
putc():
    276a:	09a002ef          	jal	t0,2804 <__riscv_save_0>
    276e:	0045c703          	lbu	a4,4(a1)
    2772:	8b09                	andi	a4,a4,2
    2774:	cb01                	beqz	a4,2784 <fputc+0x1a>
    2776:	459c                	lw	a5,8(a1)
    2778:	842a                	mv	s0,a0
    277a:	0ff57513          	zext.b	a0,a0
    277e:	9782                	jalr	a5
    2780:	00055363          	bgez	a0,2786 <fputc+0x1c>
    2784:	547d                	li	s0,-1
    2786:	8522                	mv	a0,s0
    2788:	a045                	j	2828 <__riscv_restore_0>

0000278a <ungetc>:
ungetc():
    278a:	0045c783          	lbu	a5,4(a1)
    278e:	8b85                	andi	a5,a5,1
    2790:	e789                	bnez	a5,279a <ungetc+0x10>
    2792:	557d                	li	a0,-1
    2794:	8082                	ret
    2796:	557d                	li	a0,-1
    2798:	a841                	j	2828 <__riscv_restore_0>
    279a:	06a002ef          	jal	t0,2804 <__riscv_save_0>
    279e:	57fd                	li	a5,-1
    27a0:	842a                	mv	s0,a0
    27a2:	fef50ae3          	beq	a0,a5,2796 <ungetc+0xc>
    27a6:	852e                	mv	a0,a1
    27a8:	10046613          	ori	a2,s0,256
    27ac:	4581                	li	a1,0
    27ae:	2819                	jal	27c4 <__picolibc_non_atomic_compare_exchange_ungetc>
    27b0:	d17d                	beqz	a0,2796 <ungetc+0xc>
    27b2:	0ff47513          	zext.b	a0,s0
    27b6:	b7cd                	j	2798 <ungetc+0xe>

000027b8 <__picolibc_non_atomic_exchange_ungetc>:
__atomic_exchange_ungetc():
    27b8:	411c                	lw	a5,0(a0)
    27ba:	c10c                	sw	a1,0(a0)
    27bc:	01079513          	slli	a0,a5,0x10
    27c0:	8141                	srli	a0,a0,0x10
    27c2:	8082                	ret

000027c4 <__picolibc_non_atomic_compare_exchange_ungetc>:
__picolibc_non_atomic_compare_exchange_ungetc():
    27c4:	411c                	lw	a5,0(a0)
    27c6:	00f59563          	bne	a1,a5,27d0 <__picolibc_non_atomic_compare_exchange_ungetc+0xc>
    27ca:	c110                	sw	a2,0(a0)
    27cc:	4505                	li	a0,1
    27ce:	8082                	ret
    27d0:	4501                	li	a0,0
    27d2:	8082                	ret

000027d4 <__riscv_save_12>:
__riscv_save_12():
    27d4:	7139                	addi	sp,sp,-64
    27d6:	4301                	li	t1,0
    27d8:	c66e                	sw	s11,12(sp)
    27da:	a019                	j	27e0 <__riscv_save_10+0x4>

000027dc <__riscv_save_10>:
    27dc:	7139                	addi	sp,sp,-64
    27de:	5341                	li	t1,-16
    27e0:	c86a                	sw	s10,16(sp)
    27e2:	ca66                	sw	s9,20(sp)
    27e4:	cc62                	sw	s8,24(sp)
    27e6:	ce5e                	sw	s7,28(sp)
    27e8:	a019                	j	27ee <__riscv_save_4+0x4>

000027ea <__riscv_save_4>:
    27ea:	7139                	addi	sp,sp,-64
    27ec:	5301                	li	t1,-32
    27ee:	d05a                	sw	s6,32(sp)
    27f0:	d256                	sw	s5,36(sp)
    27f2:	d452                	sw	s4,40(sp)
    27f4:	d64e                	sw	s3,44(sp)
    27f6:	d84a                	sw	s2,48(sp)
    27f8:	da26                	sw	s1,52(sp)
    27fa:	dc22                	sw	s0,56(sp)
    27fc:	de06                	sw	ra,60(sp)
    27fe:	40610133          	sub	sp,sp,t1
    2802:	8282                	jr	t0

00002804 <__riscv_save_0>:
__riscv_save_1():
    2804:	1141                	addi	sp,sp,-16
    2806:	c04a                	sw	s2,0(sp)
    2808:	c226                	sw	s1,4(sp)
    280a:	c422                	sw	s0,8(sp)
    280c:	c606                	sw	ra,12(sp)
    280e:	8282                	jr	t0

00002810 <__riscv_restore_12>:
__riscv_restore_12():
    2810:	4db2                	lw	s11,12(sp)
    2812:	0141                	addi	sp,sp,16

00002814 <__riscv_restore_10>:
    2814:	4d02                	lw	s10,0(sp)
    2816:	4c92                	lw	s9,4(sp)
    2818:	4c22                	lw	s8,8(sp)
    281a:	4bb2                	lw	s7,12(sp)
    281c:	0141                	addi	sp,sp,16

0000281e <__riscv_restore_4>:
    281e:	4b02                	lw	s6,0(sp)
    2820:	4a92                	lw	s5,4(sp)
    2822:	4a22                	lw	s4,8(sp)
    2824:	49b2                	lw	s3,12(sp)
    2826:	0141                	addi	sp,sp,16

00002828 <__riscv_restore_0>:
    2828:	4902                	lw	s2,0(sp)
    282a:	4492                	lw	s1,4(sp)
    282c:	4422                	lw	s0,8(sp)
    282e:	40b2                	lw	ra,12(sp)
    2830:	0141                	addi	sp,sp,16
    2832:	8082                	ret
